TN:
SF:/home/runner/work/TDDThreadSafeContainer/TDDThreadSafeContainer/src/storage.hpp
FN:100,110,_ZN7StorageINSt7__cxx1112basic_stringIcSt11char_traitsIcESaIcEEES5_E8containsERKS5_
FN:100,110,_ZN7StorageIiNSt7__cxx1112basic_stringIcSt11char_traitsIcESaIcEEEE8containsERKi
FN:100,110,_ZN7StorageIiiE8containsERKi
FN:128,146,_ZN7StorageINSt7__cxx1112basic_stringIcSt11char_traitsIcESaIcEEES5_E13lru_cache_addERKS5_S8_
FN:128,146,_ZN7StorageIiNSt7__cxx1112basic_stringIcSt11char_traitsIcESaIcEEEE13lru_cache_addERKiRKS5_
FN:128,146,_ZN7StorageIiiE13lru_cache_addERKiS2_
FN:16,23,_ZN7StorageINSt7__cxx1112basic_stringIcSt11char_traitsIcESaIcEEES5_EC2Emm
FN:16,23,_ZN7StorageIiNSt7__cxx1112basic_stringIcSt11char_traitsIcESaIcEEEEC2Emm
FN:16,23,_ZN7StorageIiiEC2Emm
FN:25,47,_ZN7StorageINSt7__cxx1112basic_stringIcSt11char_traitsIcESaIcEEES5_E5storeERKS5_S8_
FN:25,47,_ZN7StorageIiNSt7__cxx1112basic_stringIcSt11char_traitsIcESaIcEEEE5storeERKiRKS5_
FN:25,47,_ZN7StorageIiiE5storeERKiS2_
FN:49,73,_ZN7StorageINSt7__cxx1112basic_stringIcSt11char_traitsIcESaIcEEES5_E4loadERKS5_
FN:49,73,_ZN7StorageIiNSt7__cxx1112basic_stringIcSt11char_traitsIcESaIcEEEE4loadERKi
FN:49,73,_ZN7StorageIiiE4loadERKi
FN:75,98,_ZN7StorageINSt7__cxx1112basic_stringIcSt11char_traitsIcESaIcEEES5_E6removeERKS5_
FN:75,98,_ZN7StorageIiNSt7__cxx1112basic_stringIcSt11char_traitsIcESaIcEEEE6removeERKi
FN:75,98,_ZN7StorageIiiE6removeERKi
FNDA:4,_ZN7StorageINSt7__cxx1112basic_stringIcSt11char_traitsIcESaIcEEES5_E8containsERKS5_
FNDA:12000,_ZN7StorageIiNSt7__cxx1112basic_stringIcSt11char_traitsIcESaIcEEEE8containsERKi
FNDA:10,_ZN7StorageIiiE8containsERKi
FNDA:5,_ZN7StorageINSt7__cxx1112basic_stringIcSt11char_traitsIcESaIcEEES5_E13lru_cache_addERKS5_S8_
FNDA:10296,_ZN7StorageIiNSt7__cxx1112basic_stringIcSt11char_traitsIcESaIcEEEE13lru_cache_addERKiRKS5_
FNDA:34,_ZN7StorageIiiE13lru_cache_addERKiS2_
FNDA:3,_ZN7StorageINSt7__cxx1112basic_stringIcSt11char_traitsIcESaIcEEES5_EC2Emm
FNDA:2,_ZN7StorageIiNSt7__cxx1112basic_stringIcSt11char_traitsIcESaIcEEEEC2Emm
FNDA:4,_ZN7StorageIiiEC2Emm
FNDA:6,_ZN7StorageINSt7__cxx1112basic_stringIcSt11char_traitsIcESaIcEEES5_E5storeERKS5_S8_
FNDA:10000,_ZN7StorageIiNSt7__cxx1112basic_stringIcSt11char_traitsIcESaIcEEEE5storeERKiRKS5_
FNDA:23,_ZN7StorageIiiE5storeERKiS2_
FNDA:3,_ZN7StorageINSt7__cxx1112basic_stringIcSt11char_traitsIcESaIcEEES5_E4loadERKS5_
FNDA:10000,_ZN7StorageIiNSt7__cxx1112basic_stringIcSt11char_traitsIcESaIcEEEE4loadERKi
FNDA:19,_ZN7StorageIiiE4loadERKi
FNDA:1,_ZN7StorageINSt7__cxx1112basic_stringIcSt11char_traitsIcESaIcEEES5_E6removeERKS5_
FNDA:1000,_ZN7StorageIiNSt7__cxx1112basic_stringIcSt11char_traitsIcESaIcEEEE6removeERKi
FNDA:3,_ZN7StorageIiiE6removeERKi
FNF:18
FNH:18
DA:16,9
DA:17,9
DA:18,9
DA:19,1
DA:23,10
DA:25,10029
DA:27,10029
DA:28,10029
DA:29,10029
DA:30,3955
DA:31,7910
DA:32,3955
DA:34,3955
DA:37,0
DA:39,10029
DA:40,10029
DA:41,10029
DA:42,1
DA:44,10028
DA:45,10028
DA:46,10028
DA:47,10029
DA:49,10022
DA:51,10022
DA:52,10022
DA:53,10022
DA:54,9714
DA:55,9714
DA:56,9714
DA:58,9714
DA:60,9714
DA:61,9714
DA:62,9711
DA:64,308
DA:65,308
DA:66,308
DA:67,1
DA:69,307
DA:70,307
DA:71,307
DA:72,307
DA:73,308
DA:75,1004
DA:76,1004
DA:77,2
DA:80,1002
DA:81,1002
DA:82,1002
DA:83,955
DA:84,955
DA:85,955
DA:86,955
DA:87,955
DA:89,955
DA:90,955
DA:91,955
DA:92,955
DA:93,47
DA:94,47
DA:95,47
DA:96,47
DA:97,47
DA:98,1002
DA:100,12014
DA:102,12014
DA:103,12014
DA:104,10738
DA:106,10738
DA:108,1276
DA:109,1276
DA:110,1276
DA:128,10335
DA:129,10335
DA:131,10335
DA:132,3831
DA:135,6504
DA:136,5531
DA:137,5531
DA:138,5531
DA:139,5531
DA:140,5531
DA:143,6504
DA:144,6504
DA:145,6504
DA:146,10301
LF:85
LH:84
end_of_record
TN:
SF:/home/runner/work/TDDThreadSafeContainer/TDDThreadSafeContainer/tests/test_threadsafe_storage.cpp
FN:107,129,_ZN60storage_test_test_correct_storage_and_cache_work_remove_Test8TestBodyEv
FN:107,129,_ZN60storage_test_test_correct_storage_and_cache_work_remove_TestD0Ev
FN:107,129,_ZN60storage_test_test_correct_storage_and_cache_work_remove_TestD2Ev
FN:13,13,_ZN42storage_test_test_invalid_constructor_Test8TestBodyEv
FN:13,13,_ZN42storage_test_test_invalid_constructor_TestD0Ev
FN:13,13,_ZN42storage_test_test_invalid_constructor_TestD2Ev
FN:134,178,_ZN36storage_test_test_thread_access_Test8TestBodyEv
FN:134,178,_ZN36storage_test_test_thread_access_TestD0Ev
FN:134,178,_ZN36storage_test_test_thread_access_TestD2Ev
FN:145,171,_ZZN36storage_test_test_thread_access_Test8TestBodyEvENKUliiE_clEii
FN:180,183,main
FN:21,21,_ZN36storage_test_test_invalid_store_Test8TestBodyEv
FN:21,21,_ZN36storage_test_test_invalid_store_TestD0Ev
FN:21,21,_ZN36storage_test_test_invalid_store_TestD2Ev
FN:32,32,_ZN33storage_test_test_store_load_Test8TestBodyEv
FN:32,32,_ZN33storage_test_test_store_load_TestD0Ev
FN:32,32,_ZN33storage_test_test_store_load_TestD2Ev
FN:43,43,_ZN38storage_test_test_remove_contains_Test8TestBodyEv
FN:43,43,_ZN38storage_test_test_remove_contains_TestD0Ev
FN:43,43,_ZN38storage_test_test_remove_contains_TestD2Ev
FN:56,56,_ZN38storage_test_test_unexistant_load_Test8TestBodyEv
FN:56,56,_ZN38storage_test_test_unexistant_load_TestD0Ev
FN:56,56,_ZN38storage_test_test_unexistant_load_TestD2Ev
FN:64,64,_ZN40storage_test_test_unexistant_remove_Test8TestBodyEv
FN:64,64,_ZN40storage_test_test_unexistant_remove_TestD0Ev
FN:64,64,_ZN40storage_test_test_unexistant_remove_TestD2Ev
FN:71,71,_ZN58storage_test_test_correct_storage_and_cache_work_load_Test8TestBodyEv
FN:71,71,_ZN58storage_test_test_correct_storage_and_cache_work_load_TestD0Ev
FN:71,71,_ZN58storage_test_test_correct_storage_and_cache_work_load_TestD2Ev
FNDA:1,_ZN60storage_test_test_correct_storage_and_cache_work_remove_Test8TestBodyEv
FNDA:1,_ZN60storage_test_test_correct_storage_and_cache_work_remove_TestD0Ev
FNDA:0,_ZN60storage_test_test_correct_storage_and_cache_work_remove_TestD2Ev
FNDA:1,_ZN42storage_test_test_invalid_constructor_Test8TestBodyEv
FNDA:1,_ZN42storage_test_test_invalid_constructor_TestD0Ev
FNDA:0,_ZN42storage_test_test_invalid_constructor_TestD2Ev
FNDA:1,_ZN36storage_test_test_thread_access_Test8TestBodyEv
FNDA:1,_ZN36storage_test_test_thread_access_TestD0Ev
FNDA:0,_ZN36storage_test_test_thread_access_TestD2Ev
FNDA:10,_ZZN36storage_test_test_thread_access_Test8TestBodyEvENKUliiE_clEii
FNDA:1,main
FNDA:1,_ZN36storage_test_test_invalid_store_Test8TestBodyEv
FNDA:1,_ZN36storage_test_test_invalid_store_TestD0Ev
FNDA:0,_ZN36storage_test_test_invalid_store_TestD2Ev
FNDA:1,_ZN33storage_test_test_store_load_Test8TestBodyEv
FNDA:1,_ZN33storage_test_test_store_load_TestD0Ev
FNDA:0,_ZN33storage_test_test_store_load_TestD2Ev
FNDA:1,_ZN38storage_test_test_remove_contains_Test8TestBodyEv
FNDA:1,_ZN38storage_test_test_remove_contains_TestD0Ev
FNDA:0,_ZN38storage_test_test_remove_contains_TestD2Ev
FNDA:1,_ZN38storage_test_test_unexistant_load_Test8TestBodyEv
FNDA:1,_ZN38storage_test_test_unexistant_load_TestD0Ev
FNDA:0,_ZN38storage_test_test_unexistant_load_TestD2Ev
FNDA:1,_ZN40storage_test_test_unexistant_remove_Test8TestBodyEv
FNDA:1,_ZN40storage_test_test_unexistant_remove_TestD0Ev
FNDA:0,_ZN40storage_test_test_unexistant_remove_TestD2Ev
FNDA:1,_ZN58storage_test_test_correct_storage_and_cache_work_load_Test8TestBodyEv
FNDA:1,_ZN58storage_test_test_correct_storage_and_cache_work_load_TestD0Ev
FNDA:0,_ZN58storage_test_test_correct_storage_and_cache_work_load_TestD2Ev
FNF:29
FNH:20
DA:13,3
DA:14,1
DA:17,1
DA:18,1
DA:21,3
DA:22,1
DA:23,1
DA:24,1
DA:25,1
DA:28,0
DA:29,2
DA:32,3
DA:33,1
DA:35,1
DA:36,2
DA:38,1
DA:39,2
DA:40,2
DA:43,3
DA:44,1
DA:45,1
DA:46,2
DA:48,1
DA:49,1
DA:51,2
DA:52,1
DA:53,2
DA:56,3
DA:57,1
DA:59,1
DA:60,1
DA:61,2
DA:64,3
DA:65,1
DA:67,1
DA:68,2
DA:71,3
DA:72,1
DA:73,1
DA:74,1
DA:76,11
DA:77,10
DA:80,1
DA:81,1
DA:82,1
DA:84,1
DA:85,1
DA:87,1
DA:89,1
DA:90,1
DA:91,1
DA:92,1
DA:94,1
DA:95,1
DA:97,1
DA:98,1
DA:99,1
DA:100,1
DA:101,1
DA:102,1
DA:103,1
DA:104,2
DA:107,3
DA:108,1
DA:109,1
DA:110,1
DA:112,11
DA:113,10
DA:116,1
DA:117,1
DA:118,1
DA:120,1
DA:121,1
DA:123,1
DA:125,1
DA:126,1
DA:127,1
DA:128,1
DA:129,2
DA:134,3
DA:135,1
DA:136,1
DA:137,1
DA:139,1
DA:140,1
DA:142,1
DA:144,11
DA:145,20
DA:149,10
DA:150,10
DA:151,10
DA:153,10
DA:154,10
DA:156,10010
DA:157,10000
DA:158,10000
DA:160,10000
DA:161,10000
DA:162,10000
DA:163,10000
DA:165,10000
DA:166,1000
DA:167,1000
DA:168,2000
DA:169,1000
DA:170,10000
DA:171,20
DA:172,10
DA:175,11
DA:176,10
DA:178,2
DA:180,1
DA:181,1
DA:182,1
LF:114
LH:113
end_of_record
