TN:
SF:/home/runner/work/TDDThreadSafeContainer/TDDThreadSafeContainer/src/storage.hpp
FN:100,110,_ZN7StorageINSt7__cxx1112basic_stringIcSt11char_traitsIcESaIcEEES5_E8containsERKS5_
FN:100,110,_ZN7StorageIiNSt7__cxx1112basic_stringIcSt11char_traitsIcESaIcEEEE8containsERKi
FN:100,110,_ZN7StorageIiiE8containsERKi
FN:128,146,_ZN7StorageINSt7__cxx1112basic_stringIcSt11char_traitsIcESaIcEEES5_E13lru_cache_addERKS5_S8_
FN:128,146,_ZN7StorageIiNSt7__cxx1112basic_stringIcSt11char_traitsIcESaIcEEEE13lru_cache_addERKiRKS5_
FN:128,146,_ZN7StorageIiiE13lru_cache_addERKiS2_
FN:16,23,_ZN7StorageINSt7__cxx1112basic_stringIcSt11char_traitsIcESaIcEEES5_EC2Emm
FN:16,23,_ZN7StorageIiNSt7__cxx1112basic_stringIcSt11char_traitsIcESaIcEEEEC2Emm
FN:16,23,_ZN7StorageIiiEC2Emm
FN:25,47,_ZN7StorageINSt7__cxx1112basic_stringIcSt11char_traitsIcESaIcEEES5_E5storeERKS5_S8_
FN:25,47,_ZN7StorageIiNSt7__cxx1112basic_stringIcSt11char_traitsIcESaIcEEEE5storeERKiRKS5_
FN:25,47,_ZN7StorageIiiE5storeERKiS2_
FN:49,73,_ZN7StorageINSt7__cxx1112basic_stringIcSt11char_traitsIcESaIcEEES5_E4loadERKS5_
FN:49,73,_ZN7StorageIiNSt7__cxx1112basic_stringIcSt11char_traitsIcESaIcEEEE4loadERKi
FN:49,73,_ZN7StorageIiiE4loadERKi
FN:75,98,_ZN7StorageINSt7__cxx1112basic_stringIcSt11char_traitsIcESaIcEEES5_E6removeERKS5_
FN:75,98,_ZN7StorageIiNSt7__cxx1112basic_stringIcSt11char_traitsIcESaIcEEEE6removeERKi
FN:75,98,_ZN7StorageIiiE6removeERKi
FNDA:4,_ZN7StorageINSt7__cxx1112basic_stringIcSt11char_traitsIcESaIcEEES5_E8containsERKS5_
FNDA:12000,_ZN7StorageIiNSt7__cxx1112basic_stringIcSt11char_traitsIcESaIcEEEE8containsERKi
FNDA:10,_ZN7StorageIiiE8containsERKi
FNDA:5,_ZN7StorageINSt7__cxx1112basic_stringIcSt11char_traitsIcESaIcEEES5_E13lru_cache_addERKS5_S8_
FNDA:10296,_ZN7StorageIiNSt7__cxx1112basic_stringIcSt11char_traitsIcESaIcEEEE13lru_cache_addERKiRKS5_
FNDA:34,_ZN7StorageIiiE13lru_cache_addERKiS2_
FNDA:3,_ZN7StorageINSt7__cxx1112basic_stringIcSt11char_traitsIcESaIcEEES5_EC2Emm
FNDA:2,_ZN7StorageIiNSt7__cxx1112basic_stringIcSt11char_traitsIcESaIcEEEEC2Emm
FNDA:4,_ZN7StorageIiiEC2Emm
FNDA:6,_ZN7StorageINSt7__cxx1112basic_stringIcSt11char_traitsIcESaIcEEES5_E5storeERKS5_S8_
FNDA:10000,_ZN7StorageIiNSt7__cxx1112basic_stringIcSt11char_traitsIcESaIcEEEE5storeERKiRKS5_
FNDA:23,_ZN7StorageIiiE5storeERKiS2_
FNDA:3,_ZN7StorageINSt7__cxx1112basic_stringIcSt11char_traitsIcESaIcEEES5_E4loadERKS5_
FNDA:10000,_ZN7StorageIiNSt7__cxx1112basic_stringIcSt11char_traitsIcESaIcEEEE4loadERKi
FNDA:19,_ZN7StorageIiiE4loadERKi
FNDA:1,_ZN7StorageINSt7__cxx1112basic_stringIcSt11char_traitsIcESaIcEEES5_E6removeERKS5_
FNDA:1000,_ZN7StorageIiNSt7__cxx1112basic_stringIcSt11char_traitsIcESaIcEEEE6removeERKi
FNDA:3,_ZN7StorageIiiE6removeERKi
FNF:18
FNH:18
DA:16,9
DA:17,9
DA:18,9
DA:19,1
DA:23,10
DA:25,10029
DA:27,10029
DA:28,10029
DA:29,10029
DA:30,3955
DA:31,7910
DA:32,3955
DA:34,3955
DA:37,0
DA:39,10029
DA:40,10029
DA:41,10029
DA:42,1
DA:44,10028
DA:45,10028
DA:46,10028
DA:47,10029
DA:49,10022
DA:51,10022
DA:52,10022
DA:53,10022
DA:54,9714
DA:55,9714
DA:56,9714
DA:58,9714
DA:60,9714
DA:61,9714
DA:62,9711
DA:64,308
DA:65,308
DA:66,308
DA:67,1
DA:69,307
DA:70,307
DA:71,307
DA:72,307
DA:73,308
DA:75,1004
DA:76,1004
DA:77,2
DA:80,1002
DA:81,1002
DA:82,1002
DA:83,955
DA:84,955
DA:85,955
DA:86,955
DA:87,955
DA:89,955
DA:90,955
DA:91,955
DA:92,955
DA:93,47
DA:94,47
DA:95,47
DA:96,47
DA:97,47
DA:98,1002
DA:100,12014
DA:102,12014
DA:103,12014
DA:104,10738
DA:106,10738
DA:108,1276
DA:109,1276
DA:110,1276
DA:128,10335
DA:129,10335
DA:131,10335
DA:132,3831
DA:135,6504
DA:136,5531
DA:137,5531
DA:138,5531
DA:139,5531
DA:140,5531
DA:143,6504
DA:144,6504
DA:145,6504
DA:146,10301
LF:85
LH:84
end_of_record
TN:
SF:/home/runner/work/TDDThreadSafeContainer/TDDThreadSafeContainer/tests/constants.hpp
FNF:0
FNH:0
LF:0
LH:0
end_of_record
TN:
SF:/home/runner/work/TDDThreadSafeContainer/TDDThreadSafeContainer/tests/googletest/googletest/include/gtest/gtest-assertion-result.h
FN:198,201,_ZN7testing15AssertionResultlsIA100_cEERS0_RKT_
FN:198,201,_ZN7testing15AssertionResultlsIA106_cEERS0_RKT_
FN:198,201,_ZN7testing15AssertionResultlsIA11_cEERS0_RKT_
FN:198,201,_ZN7testing15AssertionResultlsIA12_cEERS0_RKT_
FN:198,201,_ZN7testing15AssertionResultlsIA13_cEERS0_RKT_
FN:198,201,_ZN7testing15AssertionResultlsIA14_cEERS0_RKT_
FN:198,201,_ZN7testing15AssertionResultlsIA15_cEERS0_RKT_
FN:198,201,_ZN7testing15AssertionResultlsIA16_cEERS0_RKT_
FN:198,201,_ZN7testing15AssertionResultlsIA17_cEERS0_RKT_
FN:198,201,_ZN7testing15AssertionResultlsIA24_cEERS0_RKT_
FN:198,201,_ZN7testing15AssertionResultlsIA27_cEERS0_RKT_
FN:198,201,_ZN7testing15AssertionResultlsIA29_cEERS0_RKT_
FN:198,201,_ZN7testing15AssertionResultlsIA2_cEERS0_RKT_
FN:198,201,_ZN7testing15AssertionResultlsIA3_cEERS0_RKT_
FN:198,201,_ZN7testing15AssertionResultlsIA5_cEERS0_RKT_
FN:198,201,_ZN7testing15AssertionResultlsIA6_cEERS0_RKT_
FN:198,201,_ZN7testing15AssertionResultlsIA7_cEERS0_RKT_
FN:198,201,_ZN7testing15AssertionResultlsIA9_cEERS0_RKT_
FN:198,201,_ZN7testing15AssertionResultlsINS_14TestPartResultEEERS0_RKT_
FN:198,201,_ZN7testing15AssertionResultlsINS_7MessageEEERS0_RKT_
FN:198,201,_ZN7testing15AssertionResultlsINSt7__cxx1112basic_stringIcSt11char_traitsIcESaIcEEEEERS0_RKT_
FN:198,201,_ZN7testing15AssertionResultlsINSt7__cxx1112basic_stringIwSt11char_traitsIwESaIwEEEEERS0_RKT_
FN:198,201,_ZN7testing15AssertionResultlsIPKcEERS0_RKT_
FN:198,201,_ZN7testing15AssertionResultlsIPKwEERS0_RKT_
FN:198,201,_ZN7testing15AssertionResultlsIdEERS0_RKT_
FN:213,216,_ZN7testing15AssertionResult13AppendMessageERKNS_7MessageE
FNDA:0,_ZN7testing15AssertionResultlsIA100_cEERS0_RKT_
FNDA:0,_ZN7testing15AssertionResultlsIA106_cEERS0_RKT_
FNDA:0,_ZN7testing15AssertionResultlsIA11_cEERS0_RKT_
FNDA:0,_ZN7testing15AssertionResultlsIA12_cEERS0_RKT_
FNDA:0,_ZN7testing15AssertionResultlsIA13_cEERS0_RKT_
FNDA:0,_ZN7testing15AssertionResultlsIA14_cEERS0_RKT_
FNDA:0,_ZN7testing15AssertionResultlsIA15_cEERS0_RKT_
FNDA:0,_ZN7testing15AssertionResultlsIA16_cEERS0_RKT_
FNDA:0,_ZN7testing15AssertionResultlsIA17_cEERS0_RKT_
FNDA:0,_ZN7testing15AssertionResultlsIA24_cEERS0_RKT_
FNDA:0,_ZN7testing15AssertionResultlsIA27_cEERS0_RKT_
FNDA:0,_ZN7testing15AssertionResultlsIA29_cEERS0_RKT_
FNDA:0,_ZN7testing15AssertionResultlsIA2_cEERS0_RKT_
FNDA:0,_ZN7testing15AssertionResultlsIA3_cEERS0_RKT_
FNDA:0,_ZN7testing15AssertionResultlsIA5_cEERS0_RKT_
FNDA:0,_ZN7testing15AssertionResultlsIA6_cEERS0_RKT_
FNDA:0,_ZN7testing15AssertionResultlsIA7_cEERS0_RKT_
FNDA:0,_ZN7testing15AssertionResultlsIA9_cEERS0_RKT_
FNDA:0,_ZN7testing15AssertionResultlsINS_14TestPartResultEEERS0_RKT_
FNDA:0,_ZN7testing15AssertionResultlsINS_7MessageEEERS0_RKT_
FNDA:0,_ZN7testing15AssertionResultlsINSt7__cxx1112basic_stringIcSt11char_traitsIcESaIcEEEEERS0_RKT_
FNDA:0,_ZN7testing15AssertionResultlsINSt7__cxx1112basic_stringIwSt11char_traitsIwESaIwEEEEERS0_RKT_
FNDA:0,_ZN7testing15AssertionResultlsIPKcEERS0_RKT_
FNDA:0,_ZN7testing15AssertionResultlsIPKwEERS0_RKT_
FNDA:0,_ZN7testing15AssertionResultlsIdEERS0_RKT_
FNDA:0,_ZN7testing15AssertionResult13AppendMessageERKNS_7MessageE
FNF:26
FNH:0
DA:140,22017
DA:162,11010
DA:168,22017
DA:181,11007
DA:190,0
DA:191,0
DA:194,0
DA:198,0
DA:199,0
DA:200,0
DA:213,0
DA:214,0
DA:215,0
DA:216,0
LF:14
LH:4
end_of_record
TN:
SF:/home/runner/work/TDDThreadSafeContainer/TDDThreadSafeContainer/tests/googletest/googletest/include/gtest/gtest-matchers.h
FN:217,219,_ZN7testing8internal13SharedPayloadINS0_9EqMatcherINSt7__cxx1112basic_stringIcSt11char_traitsIcESaIcEEEEEE7DestroyEPNS0_17SharedPayloadBaseE
FN:232,235,_ZNK7testing8internal11MatcherBaseIRKNSt7__cxx1112basic_stringIcSt11char_traitsIcESaIcEEEE15MatchAndExplainES9_PNS_19MatchResultListenerE
FN:244,247,_ZNK7testing8internal11MatcherBaseINSt7__cxx1112basic_stringIcSt11char_traitsIcESaIcEEEE10DescribeToEPSo
FN:244,247,_ZNK7testing8internal11MatcherBaseIRKNSt7__cxx1112basic_stringIcSt11char_traitsIcESaIcEEEE10DescribeToEPSo
FN:244,247,_ZNK7testing8internal11MatcherBaseIRKSt17basic_string_viewIcSt11char_traitsIcEEE10DescribeToEPSo
FN:244,247,_ZNK7testing8internal11MatcherBaseISt17basic_string_viewIcSt11char_traitsIcEEE10DescribeToEPSo
FN:250,253,_ZNK7testing8internal11MatcherBaseINSt7__cxx1112basic_stringIcSt11char_traitsIcESaIcEEEE18DescribeNegationToEPSo
FN:250,253,_ZNK7testing8internal11MatcherBaseIRKNSt7__cxx1112basic_stringIcSt11char_traitsIcESaIcEEEE18DescribeNegationToEPSo
FN:250,253,_ZNK7testing8internal11MatcherBaseIRKSt17basic_string_viewIcSt11char_traitsIcEEE18DescribeNegationToEPSo
FN:250,253,_ZNK7testing8internal11MatcherBaseISt17basic_string_viewIcSt11char_traitsIcEEE18DescribeNegationToEPSo
FN:313,313,_ZN7testing8internal11MatcherBaseINSt7__cxx1112basic_stringIcSt11char_traitsIcESaIcEEEED0Ev
FN:313,313,_ZN7testing8internal11MatcherBaseINSt7__cxx1112basic_stringIcSt11char_traitsIcESaIcEEEED2Ev
FN:313,313,_ZN7testing8internal11MatcherBaseIRKNSt7__cxx1112basic_stringIcSt11char_traitsIcESaIcEEEED0Ev
FN:313,313,_ZN7testing8internal11MatcherBaseIRKNSt7__cxx1112basic_stringIcSt11char_traitsIcESaIcEEEED2Ev
FN:313,313,_ZN7testing8internal11MatcherBaseIRKSt17basic_string_viewIcSt11char_traitsIcEEED0Ev
FN:313,313,_ZN7testing8internal11MatcherBaseIRKSt17basic_string_viewIcSt11char_traitsIcEEED2Ev
FN:313,313,_ZN7testing8internal11MatcherBaseISt17basic_string_viewIcSt11char_traitsIcEEED0Ev
FN:313,313,_ZN7testing8internal11MatcherBaseISt17basic_string_viewIcSt11char_traitsIcEEED2Ev
FN:333,337,_ZN7testing8internal11MatcherBaseINSt7__cxx1112basic_stringIcSt11char_traitsIcESaIcEEEE19MatchAndExplainImplINS8_11ValuePolicyINS0_9EqMatcherIS7_EELb0EEEEEDTcldtclsrT_3Getfp_E15MatchAndExplainfp0_clptfp1_L_ZNS_19MatchResultListener6streamEvEEEERKS8_RKS7_PSF_
FN:333,337,_ZN7testing8internal11MatcherBaseIRKNSt7__cxx1112basic_stringIcSt11char_traitsIcESaIcEEEE19MatchAndExplainImplINSA_11ValuePolicyINS0_9EqMatcherIS7_EELb0EEEEEDTcldtclsrT_3Getfp_E15MatchAndExplainfp0_clptfp1_L_ZNS_19MatchResultListener6streamEvEEEERKSA_S9_PSH_
FN:333,337,_ZN7testing8internal11MatcherBaseIRKSt17basic_string_viewIcSt11char_traitsIcEEE19MatchAndExplainImplINS8_11ValuePolicyINS0_9EqMatcherINSt7__cxx1112basic_stringIcS4_SaIcEEEEELb0EEEEEDTcldtclsrT_3Getfp_E15MatchAndExplainfp0_clptfp1_L_ZNS_19MatchResultListener6streamEvEEEERKS8_S7_PSJ_
FN:333,337,_ZN7testing8internal11MatcherBaseISt17basic_string_viewIcSt11char_traitsIcEEE19MatchAndExplainImplINS6_11ValuePolicyINS0_9EqMatcherINSt7__cxx1112basic_stringIcS4_SaIcEEEEELb0EEEEEDTcldtclsrT_3Getfp_E15MatchAndExplainfp0_clptfp1_L_ZNS_19MatchResultListener6streamEvEEEERKS6_RKS5_PSH_
FN:347,354,_ZN7testing8internal11MatcherBaseINSt7__cxx1112basic_stringIcSt11char_traitsIcESaIcEEEE12DescribeImplINS8_11ValuePolicyINS0_9EqMatcherIS7_EELb0EEEEEvRKS8_PSob
FN:347,354,_ZN7testing8internal11MatcherBaseIRKNSt7__cxx1112basic_stringIcSt11char_traitsIcESaIcEEEE12DescribeImplINSA_11ValuePolicyINS0_9EqMatcherIS7_EELb0EEEEEvRKSA_PSob
FN:347,354,_ZN7testing8internal11MatcherBaseIRKSt17basic_string_viewIcSt11char_traitsIcEEE12DescribeImplINS8_11ValuePolicyINS0_9EqMatcherINSt7__cxx1112basic_stringIcS4_SaIcEEEEELb0EEEEEvRKS8_PSob
FN:347,354,_ZN7testing8internal11MatcherBaseISt17basic_string_viewIcSt11char_traitsIcEEE12DescribeImplINS6_11ValuePolicyINS0_9EqMatcherINSt7__cxx1112basic_stringIcS4_SaIcEEEEELb0EEEEEvRKS6_PSob
FN:357,370,_ZN7testing8internal11MatcherBaseINSt7__cxx1112basic_stringIcSt11char_traitsIcESaIcEEEE16GetDescriberImplINS8_11ValuePolicyINS0_9EqMatcherIS7_EELb0EEEEEPKNS_25MatcherDescriberInterfaceERKS8_
FN:357,370,_ZN7testing8internal11MatcherBaseIRKNSt7__cxx1112basic_stringIcSt11char_traitsIcESaIcEEEE16GetDescriberImplINSA_11ValuePolicyINS0_9EqMatcherIS7_EELb0EEEEEPKNS_25MatcherDescriberInterfaceERKSA_
FN:357,370,_ZN7testing8internal11MatcherBaseIRKSt17basic_string_viewIcSt11char_traitsIcEEE16GetDescriberImplINS8_11ValuePolicyINS0_9EqMatcherINSt7__cxx1112basic_stringIcS4_SaIcEEEEELb0EEEEEPKNS_25MatcherDescriberInterfaceERKS8_
FN:357,370,_ZN7testing8internal11MatcherBaseISt17basic_string_viewIcSt11char_traitsIcEEE16GetDescriberImplINS6_11ValuePolicyINS0_9EqMatcherINSt7__cxx1112basic_stringIcS4_SaIcEEEEELb0EEEEEPKNS_25MatcherDescriberInterfaceERKS6_
FN:389,393,_ZN7testing8internal11MatcherBaseINSt7__cxx1112basic_stringIcSt11char_traitsIcESaIcEEEE7DestroyEv
FN:389,393,_ZN7testing8internal11MatcherBaseIRKNSt7__cxx1112basic_stringIcSt11char_traitsIcESaIcEEEE7DestroyEv
FN:389,393,_ZN7testing8internal11MatcherBaseIRKSt17basic_string_viewIcSt11char_traitsIcEEE7DestroyEv
FN:389,393,_ZN7testing8internal11MatcherBaseISt17basic_string_viewIcSt11char_traitsIcEEE7DestroyEv
FN:424,426,_ZN7testing8internal11MatcherBaseINSt7__cxx1112basic_stringIcSt11char_traitsIcESaIcEEEE11ValuePolicyINS0_9EqMatcherIS7_EELb0EE4InitISB_EEvRS8_OT_
FN:424,426,_ZN7testing8internal11MatcherBaseIRKNSt7__cxx1112basic_stringIcSt11char_traitsIcESaIcEEEE11ValuePolicyINS0_9EqMatcherIS7_EELb0EE4InitISD_EEvRSA_OT_
FN:424,426,_ZN7testing8internal11MatcherBaseIRKSt17basic_string_viewIcSt11char_traitsIcEEE11ValuePolicyINS0_9EqMatcherINSt7__cxx1112basic_stringIcS4_SaIcEEEEELb0EE4InitISF_EEvRS8_OT_
FN:424,426,_ZN7testing8internal11MatcherBaseISt17basic_string_viewIcSt11char_traitsIcEEE11ValuePolicyINS0_9EqMatcherINSt7__cxx1112basic_stringIcS4_SaIcEEEEELb0EE4InitISD_EEvRS6_OT_
FN:702,705,_ZNK7testing8internal14ComparisonBaseINS0_9EqMatcherINSt7__cxx1112basic_stringIcSt11char_traitsIcESaIcEEEEES8_St8equal_toIvEE10DescribeToEPSo
FN:706,709,_ZNK7testing8internal14ComparisonBaseINS0_9EqMatcherINSt7__cxx1112basic_stringIcSt11char_traitsIcESaIcEEEEES8_St8equal_toIvEE18DescribeNegationToEPSo
FNDA:0,_ZN7testing8internal13SharedPayloadINS0_9EqMatcherINSt7__cxx1112basic_stringIcSt11char_traitsIcESaIcEEEEEE7DestroyEPNS0_17SharedPayloadBaseE
FNDA:0,_ZNK7testing8internal11MatcherBaseIRKNSt7__cxx1112basic_stringIcSt11char_traitsIcESaIcEEEE15MatchAndExplainES9_PNS_19MatchResultListenerE
FNDA:0,_ZNK7testing8internal11MatcherBaseINSt7__cxx1112basic_stringIcSt11char_traitsIcESaIcEEEE10DescribeToEPSo
FNDA:0,_ZNK7testing8internal11MatcherBaseIRKNSt7__cxx1112basic_stringIcSt11char_traitsIcESaIcEEEE10DescribeToEPSo
FNDA:0,_ZNK7testing8internal11MatcherBaseIRKSt17basic_string_viewIcSt11char_traitsIcEEE10DescribeToEPSo
FNDA:0,_ZNK7testing8internal11MatcherBaseISt17basic_string_viewIcSt11char_traitsIcEEE10DescribeToEPSo
FNDA:0,_ZNK7testing8internal11MatcherBaseINSt7__cxx1112basic_stringIcSt11char_traitsIcESaIcEEEE18DescribeNegationToEPSo
FNDA:0,_ZNK7testing8internal11MatcherBaseIRKNSt7__cxx1112basic_stringIcSt11char_traitsIcESaIcEEEE18DescribeNegationToEPSo
FNDA:0,_ZNK7testing8internal11MatcherBaseIRKSt17basic_string_viewIcSt11char_traitsIcEEE18DescribeNegationToEPSo
FNDA:0,_ZNK7testing8internal11MatcherBaseISt17basic_string_viewIcSt11char_traitsIcEEE18DescribeNegationToEPSo
FNDA:0,_ZN7testing8internal11MatcherBaseINSt7__cxx1112basic_stringIcSt11char_traitsIcESaIcEEEED0Ev
FNDA:0,_ZN7testing8internal11MatcherBaseINSt7__cxx1112basic_stringIcSt11char_traitsIcESaIcEEEED2Ev
FNDA:0,_ZN7testing8internal11MatcherBaseIRKNSt7__cxx1112basic_stringIcSt11char_traitsIcESaIcEEEED0Ev
FNDA:0,_ZN7testing8internal11MatcherBaseIRKNSt7__cxx1112basic_stringIcSt11char_traitsIcESaIcEEEED2Ev
FNDA:0,_ZN7testing8internal11MatcherBaseIRKSt17basic_string_viewIcSt11char_traitsIcEEED0Ev
FNDA:0,_ZN7testing8internal11MatcherBaseIRKSt17basic_string_viewIcSt11char_traitsIcEEED2Ev
FNDA:0,_ZN7testing8internal11MatcherBaseISt17basic_string_viewIcSt11char_traitsIcEEED0Ev
FNDA:0,_ZN7testing8internal11MatcherBaseISt17basic_string_viewIcSt11char_traitsIcEEED2Ev
FNDA:0,_ZN7testing8internal11MatcherBaseINSt7__cxx1112basic_stringIcSt11char_traitsIcESaIcEEEE19MatchAndExplainImplINS8_11ValuePolicyINS0_9EqMatcherIS7_EELb0EEEEEDTcldtclsrT_3Getfp_E15MatchAndExplainfp0_clptfp1_L_ZNS_19MatchResultListener6streamEvEEEERKS8_RKS7_PSF_
FNDA:0,_ZN7testing8internal11MatcherBaseIRKNSt7__cxx1112basic_stringIcSt11char_traitsIcESaIcEEEE19MatchAndExplainImplINSA_11ValuePolicyINS0_9EqMatcherIS7_EELb0EEEEEDTcldtclsrT_3Getfp_E15MatchAndExplainfp0_clptfp1_L_ZNS_19MatchResultListener6streamEvEEEERKSA_S9_PSH_
FNDA:0,_ZN7testing8internal11MatcherBaseIRKSt17basic_string_viewIcSt11char_traitsIcEEE19MatchAndExplainImplINS8_11ValuePolicyINS0_9EqMatcherINSt7__cxx1112basic_stringIcS4_SaIcEEEEELb0EEEEEDTcldtclsrT_3Getfp_E15MatchAndExplainfp0_clptfp1_L_ZNS_19MatchResultListener6streamEvEEEERKS8_S7_PSJ_
FNDA:0,_ZN7testing8internal11MatcherBaseISt17basic_string_viewIcSt11char_traitsIcEEE19MatchAndExplainImplINS6_11ValuePolicyINS0_9EqMatcherINSt7__cxx1112basic_stringIcS4_SaIcEEEEELb0EEEEEDTcldtclsrT_3Getfp_E15MatchAndExplainfp0_clptfp1_L_ZNS_19MatchResultListener6streamEvEEEERKS6_RKS5_PSH_
FNDA:0,_ZN7testing8internal11MatcherBaseINSt7__cxx1112basic_stringIcSt11char_traitsIcESaIcEEEE12DescribeImplINS8_11ValuePolicyINS0_9EqMatcherIS7_EELb0EEEEEvRKS8_PSob
FNDA:0,_ZN7testing8internal11MatcherBaseIRKNSt7__cxx1112basic_stringIcSt11char_traitsIcESaIcEEEE12DescribeImplINSA_11ValuePolicyINS0_9EqMatcherIS7_EELb0EEEEEvRKSA_PSob
FNDA:0,_ZN7testing8internal11MatcherBaseIRKSt17basic_string_viewIcSt11char_traitsIcEEE12DescribeImplINS8_11ValuePolicyINS0_9EqMatcherINSt7__cxx1112basic_stringIcS4_SaIcEEEEELb0EEEEEvRKS8_PSob
FNDA:0,_ZN7testing8internal11MatcherBaseISt17basic_string_viewIcSt11char_traitsIcEEE12DescribeImplINS6_11ValuePolicyINS0_9EqMatcherINSt7__cxx1112basic_stringIcS4_SaIcEEEEELb0EEEEEvRKS6_PSob
FNDA:0,_ZN7testing8internal11MatcherBaseINSt7__cxx1112basic_stringIcSt11char_traitsIcESaIcEEEE16GetDescriberImplINS8_11ValuePolicyINS0_9EqMatcherIS7_EELb0EEEEEPKNS_25MatcherDescriberInterfaceERKS8_
FNDA:0,_ZN7testing8internal11MatcherBaseIRKNSt7__cxx1112basic_stringIcSt11char_traitsIcESaIcEEEE16GetDescriberImplINSA_11ValuePolicyINS0_9EqMatcherIS7_EELb0EEEEEPKNS_25MatcherDescriberInterfaceERKSA_
FNDA:0,_ZN7testing8internal11MatcherBaseIRKSt17basic_string_viewIcSt11char_traitsIcEEE16GetDescriberImplINS8_11ValuePolicyINS0_9EqMatcherINSt7__cxx1112basic_stringIcS4_SaIcEEEEELb0EEEEEPKNS_25MatcherDescriberInterfaceERKS8_
FNDA:0,_ZN7testing8internal11MatcherBaseISt17basic_string_viewIcSt11char_traitsIcEEE16GetDescriberImplINS6_11ValuePolicyINS0_9EqMatcherINSt7__cxx1112basic_stringIcS4_SaIcEEEEELb0EEEEEPKNS_25MatcherDescriberInterfaceERKS6_
FNDA:0,_ZN7testing8internal11MatcherBaseINSt7__cxx1112basic_stringIcSt11char_traitsIcESaIcEEEE7DestroyEv
FNDA:0,_ZN7testing8internal11MatcherBaseIRKNSt7__cxx1112basic_stringIcSt11char_traitsIcESaIcEEEE7DestroyEv
FNDA:0,_ZN7testing8internal11MatcherBaseIRKSt17basic_string_viewIcSt11char_traitsIcEEE7DestroyEv
FNDA:0,_ZN7testing8internal11MatcherBaseISt17basic_string_viewIcSt11char_traitsIcEEE7DestroyEv
FNDA:0,_ZN7testing8internal11MatcherBaseINSt7__cxx1112basic_stringIcSt11char_traitsIcESaIcEEEE11ValuePolicyINS0_9EqMatcherIS7_EELb0EE4InitISB_EEvRS8_OT_
FNDA:0,_ZN7testing8internal11MatcherBaseIRKNSt7__cxx1112basic_stringIcSt11char_traitsIcESaIcEEEE11ValuePolicyINS0_9EqMatcherIS7_EELb0EE4InitISD_EEvRSA_OT_
FNDA:0,_ZN7testing8internal11MatcherBaseIRKSt17basic_string_viewIcSt11char_traitsIcEEE11ValuePolicyINS0_9EqMatcherINSt7__cxx1112basic_stringIcS4_SaIcEEEEELb0EE4InitISF_EEvRS8_OT_
FNDA:0,_ZN7testing8internal11MatcherBaseISt17basic_string_viewIcSt11char_traitsIcEEE11ValuePolicyINS0_9EqMatcherINSt7__cxx1112basic_stringIcS4_SaIcEEEEELb0EE4InitISD_EEvRS6_OT_
FNDA:0,_ZNK7testing8internal14ComparisonBaseINS0_9EqMatcherINSt7__cxx1112basic_stringIcSt11char_traitsIcESaIcEEEEES8_St8equal_toIvEE10DescribeToEPSo
FNDA:0,_ZNK7testing8internal14ComparisonBaseINS0_9EqMatcherINSt7__cxx1112basic_stringIcSt11char_traitsIcESaIcEEEEES8_St8equal_toIvEE18DescribeNegationToEPSo
FNF:40
FNH:0
DA:83,0
DA:95,0
DA:110,0
DA:114,0
DA:116,0
DA:183,0
DA:185,0
DA:206,0
DA:209,0
DA:213,0
DA:215,0
DA:217,0
DA:218,0
DA:219,0
DA:232,0
DA:233,0
DA:234,0
DA:238,0
DA:239,0
DA:240,0
DA:241,0
DA:244,0
DA:245,0
DA:246,0
DA:247,0
DA:250,0
DA:251,0
DA:252,0
DA:253,0
DA:270,0
DA:281,0
DA:282,0
DA:299,0
DA:300,0
DA:301,0
DA:304,0
DA:305,0
DA:306,0
DA:307,0
DA:308,0
DA:309,0
DA:310,0
DA:313,0
DA:327,0
DA:328,0
DA:333,0
DA:336,0
DA:347,0
DA:349,0
DA:350,0
DA:352,0
DA:354,0
DA:357,0
DA:369,0
DA:373,0
DA:389,0
DA:390,0
DA:391,0
DA:393,0
DA:420,0
DA:421,0
DA:424,0
DA:425,0
DA:426,0
DA:445,0
DA:448,0
DA:449,0
DA:494,0
DA:504,0
DA:505,0
DA:516,0
DA:528,0
DA:529,0
DA:544,0
DA:554,0
DA:555,0
DA:570,0
DA:582,0
DA:583,0
DA:692,0
DA:694,0
DA:699,0
DA:700,0
DA:702,0
DA:703,0
DA:704,0
DA:705,0
DA:706,0
DA:707,0
DA:708,0
DA:709,0
DA:725,0
DA:727,0
DA:728,0
DA:729,0
DA:730,0
DA:862,0
DA:863,0
LF:98
LH:0
end_of_record
TN:
SF:/home/runner/work/TDDThreadSafeContainer/TDDThreadSafeContainer/tests/googletest/googletest/include/gtest/gtest-message.h
FN:112,114,_ZN7testing7MessageC2ERKS0_
FN:181,188,_ZN7testing7MessagelsIKcEERS0_RKPT_
FN:181,188,_ZN7testing7MessagelsIcEERS0_RKPT_
FN:231,233,_ZN7testinglsERSoRKNS_7MessageE
FN:242,244,_ZN7testing8internal18StreamableToStringIPcEENSt7__cxx1112basic_stringIcSt11char_traitsIcESaIcEEERKT_
FN:242,244,_ZN7testing8internal18StreamableToStringIPwEENSt7__cxx1112basic_stringIcSt11char_traitsIcESaIcEEERKT_
FN:242,244,_ZN7testing8internal18StreamableToStringIiEENSt7__cxx1112basic_stringIcSt11char_traitsIcESaIcEEERKT_
FN:242,244,_ZN7testing8internal18StreamableToStringIlEENSt7__cxx1112basic_stringIcSt11char_traitsIcESaIcEEERKT_
FNDA:0,_ZN7testing7MessageC2ERKS0_
FNDA:22,_ZN7testing7MessagelsIKcEERS0_RKPT_
FNDA:1,_ZN7testing7MessagelsIcEERS0_RKPT_
FNDA:0,_ZN7testinglsERSoRKNS_7MessageE
FNDA:1,_ZN7testing8internal18StreamableToStringIPcEENSt7__cxx1112basic_stringIcSt11char_traitsIcESaIcEEERKT_
FNDA:0,_ZN7testing8internal18StreamableToStringIPwEENSt7__cxx1112basic_stringIcSt11char_traitsIcESaIcEEERKT_
FNDA:7,_ZN7testing8internal18StreamableToStringIiEENSt7__cxx1112basic_stringIcSt11char_traitsIcESaIcEEERKT_
FNDA:11,_ZN7testing8internal18StreamableToStringIlEENSt7__cxx1112basic_stringIcSt11char_traitsIcESaIcEEERKT_
FNF:8
FNH:5
DA:101,88
DA:112,0
DA:113,0
DA:114,0
DA:132,0
DA:148,482
DA:181,23
DA:182,23
DA:183,0
DA:185,23
DA:187,23
DA:231,0
DA:232,0
DA:242,19
DA:243,56
LF:15
LH:8
end_of_record
TN:
SF:/home/runner/work/TDDThreadSafeContainer/TDDThreadSafeContainer/tests/googletest/googletest/include/gtest/gtest-printers.h
FN:1092,1098,_ZN7testing8internal21UniversalTersePrinterIPKcE5PrintES3_PSo
FN:1155,1161,_ZN7testing8internal21UniversalTersePrinterIPKwE5PrintES3_PSo
FN:1223,1227,_ZN7testing13PrintToStringINSt7__cxx1112basic_stringIcSt11char_traitsIcESaIcEEEEES6_RKT_
FN:1223,1227,_ZN7testing13PrintToStringIPKcEENSt7__cxx1112basic_stringIcSt11char_traitsIcESaIcEEERKT_
FN:1223,1227,_ZN7testing13PrintToStringIPKwEENSt7__cxx1112basic_stringIcSt11char_traitsIcESaIcEEERKT_
FN:1223,1227,_ZN7testing13PrintToStringIiEENSt7__cxx1112basic_stringIcSt11char_traitsIcESaIcEEERKT_
FNDA:0,_ZN7testing8internal21UniversalTersePrinterIPKcE5PrintES3_PSo
FNDA:0,_ZN7testing8internal21UniversalTersePrinterIPKwE5PrintES3_PSo
FNDA:0,_ZN7testing13PrintToStringINSt7__cxx1112basic_stringIcSt11char_traitsIcESaIcEEEEES6_RKT_
FNDA:0,_ZN7testing13PrintToStringIPKcEENSt7__cxx1112basic_stringIcSt11char_traitsIcESaIcEEERKT_
FNDA:0,_ZN7testing13PrintToStringIPKwEENSt7__cxx1112basic_stringIcSt11char_traitsIcESaIcEEERKT_
FNDA:0,_ZN7testing13PrintToStringIiEENSt7__cxx1112basic_stringIcSt11char_traitsIcESaIcEEERKT_
FNF:6
FNH:0
DA:248,0
DA:252,0
DA:352,0
DA:362,0
DA:383,0
DA:384,0
DA:463,0
DA:465,0
DA:490,0
DA:491,0
DA:700,0
DA:701,0
DA:727,0
DA:728,0
DA:874,0
DA:883,0
DA:1064,0
DA:1065,0
DA:1092,0
DA:1093,0
DA:1094,0
DA:1096,0
DA:1098,0
DA:1155,0
DA:1156,0
DA:1157,0
DA:1159,0
DA:1161,0
DA:1183,0
DA:1187,0
DA:1223,0
DA:1224,0
DA:1225,0
DA:1226,0
DA:1227,0
LF:35
LH:0
end_of_record
TN:
SF:/home/runner/work/TDDThreadSafeContainer/TDDThreadSafeContainer/tests/googletest/googletest/include/gtest/gtest-test-part.h
FN:68,74,_ZN7testing14TestPartResultC2ENS0_4TypeEPKciS3_
FNDA:0,_ZN7testing14TestPartResultC2ENS0_4TypeEPKciS3_
FNF:1
FNH:0
DA:68,0
DA:70,0
DA:71,0
DA:72,0
DA:73,0
DA:74,0
DA:77,0
DA:81,0
DA:82,0
DA:87,0
DA:90,0
DA:93,0
DA:96,0
DA:102,0
DA:105,0
DA:108,0
DA:155,1
DA:157,0
LF:18
LH:1
end_of_record
TN:
SF:/home/runner/work/TDDThreadSafeContainer/TDDThreadSafeContainer/tests/googletest/googletest/include/gtest/gtest.h
FN:1002,1002,_ZN7testing22EmptyTestEventListener15OnTestCaseStartERKNS_9TestSuiteE
FN:1005,1005,_ZN7testing22EmptyTestEventListener11OnTestStartERKNS_8TestInfoE
FN:1006,1006,_ZN7testing22EmptyTestEventListener14OnTestDisabledERKNS_8TestInfoE
FN:1007,1007,_ZN7testing22EmptyTestEventListener16OnTestPartResultERKNS_14TestPartResultE
FN:1008,1008,_ZN7testing22EmptyTestEventListener9OnTestEndERKNS_8TestInfoE
FN:1009,1009,_ZN7testing22EmptyTestEventListener14OnTestSuiteEndERKNS_9TestSuiteE
FN:1011,1011,_ZN7testing22EmptyTestEventListener13OnTestCaseEndERKNS_9TestSuiteE
FN:1014,1014,_ZN7testing22EmptyTestEventListener27OnEnvironmentsTearDownStartERKNS_8UnitTestE
FN:1015,1015,_ZN7testing22EmptyTestEventListener25OnEnvironmentsTearDownEndERKNS_8UnitTestE
FN:1016,1017,_ZN7testing22EmptyTestEventListener18OnTestIterationEndERKNS_8UnitTestEi
FN:1018,1018,_ZN7testing22EmptyTestEventListener16OnTestProgramEndERKNS_8UnitTestE
FN:1374,1380,_ZN7testing8internal18CmpHelperEQFailureINSt7__cxx1112basic_stringIcSt11char_traitsIcESaIcEEES7_EENS_15AssertionResultEPKcSA_RKT_RKT0_
FN:1374,1380,_ZN7testing8internal18CmpHelperEQFailureIiiEENS_15AssertionResultEPKcS4_RKT_RKT0_
FN:1391,1399,_ZN7testing8internal11CmpHelperEQINSt7__cxx1112basic_stringIcSt11char_traitsIcESaIcEEES7_EENS_15AssertionResultEPKcSA_RKT_RKT0_
FN:1391,1399,_ZN7testing8internal11CmpHelperEQIiiEENS_15AssertionResultEPKcS4_RKT_RKT0_
FN:2299,2319,_ZN7testing12RegisterTestIJEZNS_8internal23InsertSyntheticTestCaseERKNSt7__cxx1112basic_stringIcSt11char_traitsIcESaIcEEENS1_12CodeLocationEbEUlvE_EEPNS_8TestInfoEPKcSF_SF_SF_SF_iT0_
FN:2299,2319,_ZN7testing12RegisterTestIJEZNS_8internal34TypeParameterizedTestSuiteRegistry22CheckForInstantiationsEvEUlvE_EEPNS_8TestInfoEPKcS7_S7_S7_S7_iT0_
FN:2306,2306,_ZZN7testing12RegisterTestIJEZNS_8internal23InsertSyntheticTestCaseERKNSt7__cxx1112basic_stringIcSt11char_traitsIcESaIcEEENS1_12CodeLocationEbEUlvE_EEPNS_8TestInfoEPKcSF_SF_SF_SF_iT0_EN11FactoryImplC2ESB_
FN:2307,2307,_ZZN7testing12RegisterTestIJEZNS_8internal23InsertSyntheticTestCaseERKNSt7__cxx1112basic_stringIcSt11char_traitsIcESaIcEEENS1_12CodeLocationEbEUlvE_EEPNS_8TestInfoEPKcSF_SF_SF_SF_iT0_EN11FactoryImpl10CreateTestEv
FN:2307,2307,_ZZN7testing12RegisterTestIJEZNS_8internal34TypeParameterizedTestSuiteRegistry22CheckForInstantiationsEvEUlvE_EEPNS_8TestInfoEPKcS7_S7_S7_S7_iT0_EN11FactoryImpl10CreateTestEv
FN:2334,2334,_Z13RUN_ALL_TESTSv
FN:335,335,_ZN7testing4Test11DeleteSelf_Ev
FN:356,356,_ZN7testing4Test5SetupEv
FN:374,375,_ZN7testing12TestPropertyC2ERKNSt7__cxx1112basic_stringIcSt11char_traitsIcESaIcEEES8_
FN:415,415,_ZNK7testing10TestResult6PassedEv
FN:638,640,_ZN7testing8TestInfo15ClearTestResultEPS0_
FN:734,736,_ZNK7testing9TestSuite6FailedEv
FN:780,782,_ZN7testing9TestSuite20ClearTestSuiteResultEPS0_
FN:792,796,_ZN7testing9TestSuite17RunSetUpTestSuiteEv
FN:800,804,_ZN7testing9TestSuite20RunTearDownTestSuiteEv
FN:807,809,_ZN7testing9TestSuite10TestPassedEPKNS_8TestInfoE
FN:812,814,_ZN7testing9TestSuite11TestSkippedEPKNS_8TestInfoE
FN:817,819,_ZN7testing9TestSuite10TestFailedEPKNS_8TestInfoE
FN:823,825,_ZN7testing9TestSuite22TestReportableDisabledEPKNS_8TestInfoE
FN:828,830,_ZN7testing9TestSuite12TestDisabledEPKNS_8TestInfoE
FN:833,835,_ZN7testing9TestSuite14TestReportableEPKNS_8TestInfoE
FN:838,840,_ZN7testing9TestSuite13ShouldRunTestEPKNS_8TestInfoE
FN:896,896,_ZN7testing11EnvironmentD0Ev
FN:896,896,_ZN7testing11EnvironmentD2Ev
FN:899,899,_ZN7testing11Environment5SetUpEv
FN:902,902,_ZN7testing11Environment8TearDownEv
FN:945,945,_ZN7testing17TestEventListener16OnTestSuiteStartERKNS_9TestSuiteE
FN:949,949,_ZN7testing17TestEventListener15OnTestCaseStartERKNS_9TestSuiteE
FN:956,956,_ZN7testing17TestEventListener14OnTestDisabledERKNS_8TestInfoE
FN:967,967,_ZN7testing17TestEventListener14OnTestSuiteEndERKNS_9TestSuiteE
FN:971,971,_ZN7testing17TestEventListener13OnTestCaseEndERKNS_9TestSuiteE
FN:994,994,_ZN7testing22EmptyTestEventListener18OnTestProgramStartERKNS_8UnitTestE
FN:995,996,_ZN7testing22EmptyTestEventListener20OnTestIterationStartERKNS_8UnitTestEi
FN:997,997,_ZN7testing22EmptyTestEventListener24OnEnvironmentsSetUpStartERKNS_8UnitTestE
FN:998,998,_ZN7testing22EmptyTestEventListener22OnEnvironmentsSetUpEndERKNS_8UnitTestE
FN:999,999,_ZN7testing22EmptyTestEventListener16OnTestSuiteStartERKNS_9TestSuiteE
FNDA:0,_ZN7testing22EmptyTestEventListener15OnTestCaseStartERKNS_9TestSuiteE
FNDA:0,_ZN7testing22EmptyTestEventListener11OnTestStartERKNS_8TestInfoE
FNDA:0,_ZN7testing22EmptyTestEventListener14OnTestDisabledERKNS_8TestInfoE
FNDA:0,_ZN7testing22EmptyTestEventListener16OnTestPartResultERKNS_14TestPartResultE
FNDA:0,_ZN7testing22EmptyTestEventListener9OnTestEndERKNS_8TestInfoE
FNDA:0,_ZN7testing22EmptyTestEventListener14OnTestSuiteEndERKNS_9TestSuiteE
FNDA:0,_ZN7testing22EmptyTestEventListener13OnTestCaseEndERKNS_9TestSuiteE
FNDA:0,_ZN7testing22EmptyTestEventListener27OnEnvironmentsTearDownStartERKNS_8UnitTestE
FNDA:0,_ZN7testing22EmptyTestEventListener25OnEnvironmentsTearDownEndERKNS_8UnitTestE
FNDA:0,_ZN7testing22EmptyTestEventListener18OnTestIterationEndERKNS_8UnitTestEi
FNDA:0,_ZN7testing22EmptyTestEventListener16OnTestProgramEndERKNS_8UnitTestE
FNDA:0,_ZN7testing8internal18CmpHelperEQFailureINSt7__cxx1112basic_stringIcSt11char_traitsIcESaIcEEES7_EENS_15AssertionResultEPKcSA_RKT_RKT0_
FNDA:0,_ZN7testing8internal18CmpHelperEQFailureIiiEENS_15AssertionResultEPKcS4_RKT_RKT0_
FNDA:11004,_ZN7testing8internal11CmpHelperEQINSt7__cxx1112basic_stringIcSt11char_traitsIcESaIcEEES7_EENS_15AssertionResultEPKcSA_RKT_RKT0_
FNDA:3,_ZN7testing8internal11CmpHelperEQIiiEENS_15AssertionResultEPKcS4_RKT_RKT0_
FNDA:0,_ZN7testing12RegisterTestIJEZNS_8internal23InsertSyntheticTestCaseERKNSt7__cxx1112basic_stringIcSt11char_traitsIcESaIcEEENS1_12CodeLocationEbEUlvE_EEPNS_8TestInfoEPKcSF_SF_SF_SF_iT0_
FNDA:0,_ZN7testing12RegisterTestIJEZNS_8internal34TypeParameterizedTestSuiteRegistry22CheckForInstantiationsEvEUlvE_EEPNS_8TestInfoEPKcS7_S7_S7_S7_iT0_
FNDA:0,_ZZN7testing12RegisterTestIJEZNS_8internal23InsertSyntheticTestCaseERKNSt7__cxx1112basic_stringIcSt11char_traitsIcESaIcEEENS1_12CodeLocationEbEUlvE_EEPNS_8TestInfoEPKcSF_SF_SF_SF_iT0_EN11FactoryImplC2ESB_
FNDA:0,_ZZN7testing12RegisterTestIJEZNS_8internal23InsertSyntheticTestCaseERKNSt7__cxx1112basic_stringIcSt11char_traitsIcESaIcEEENS1_12CodeLocationEbEUlvE_EEPNS_8TestInfoEPKcSF_SF_SF_SF_iT0_EN11FactoryImpl10CreateTestEv
FNDA:0,_ZZN7testing12RegisterTestIJEZNS_8internal34TypeParameterizedTestSuiteRegistry22CheckForInstantiationsEvEUlvE_EEPNS_8TestInfoEPKcS7_S7_S7_S7_iT0_EN11FactoryImpl10CreateTestEv
FNDA:1,_Z13RUN_ALL_TESTSv
FNDA:9,_ZN7testing4Test11DeleteSelf_Ev
FNDA:0,_ZN7testing4Test5SetupEv
FNDA:0,_ZN7testing12TestPropertyC2ERKNSt7__cxx1112basic_stringIcSt11char_traitsIcESaIcEEES8_
FNDA:18,_ZNK7testing10TestResult6PassedEv
FNDA:9,_ZN7testing8TestInfo15ClearTestResultEPS0_
FNDA:2,_ZNK7testing9TestSuite6FailedEv
FNDA:1,_ZN7testing9TestSuite20ClearTestSuiteResultEPS0_
FNDA:1,_ZN7testing9TestSuite17RunSetUpTestSuiteEv
FNDA:1,_ZN7testing9TestSuite20RunTearDownTestSuiteEv
FNDA:9,_ZN7testing9TestSuite10TestPassedEPKNS_8TestInfoE
FNDA:9,_ZN7testing9TestSuite11TestSkippedEPKNS_8TestInfoE
FNDA:18,_ZN7testing9TestSuite10TestFailedEPKNS_8TestInfoE
FNDA:9,_ZN7testing9TestSuite22TestReportableDisabledEPKNS_8TestInfoE
FNDA:0,_ZN7testing9TestSuite12TestDisabledEPKNS_8TestInfoE
FNDA:0,_ZN7testing9TestSuite14TestReportableEPKNS_8TestInfoE
FNDA:36,_ZN7testing9TestSuite13ShouldRunTestEPKNS_8TestInfoE
FNDA:0,_ZN7testing11EnvironmentD0Ev
FNDA:0,_ZN7testing11EnvironmentD2Ev
FNDA:0,_ZN7testing11Environment5SetUpEv
FNDA:0,_ZN7testing11Environment8TearDownEv
FNDA:1,_ZN7testing17TestEventListener16OnTestSuiteStartERKNS_9TestSuiteE
FNDA:0,_ZN7testing17TestEventListener15OnTestCaseStartERKNS_9TestSuiteE
FNDA:0,_ZN7testing17TestEventListener14OnTestDisabledERKNS_8TestInfoE
FNDA:1,_ZN7testing17TestEventListener14OnTestSuiteEndERKNS_9TestSuiteE
FNDA:0,_ZN7testing17TestEventListener13OnTestCaseEndERKNS_9TestSuiteE
FNDA:0,_ZN7testing22EmptyTestEventListener18OnTestProgramStartERKNS_8UnitTestE
FNDA:0,_ZN7testing22EmptyTestEventListener20OnTestIterationStartERKNS_8UnitTestEi
FNDA:0,_ZN7testing22EmptyTestEventListener24OnEnvironmentsSetUpStartERKNS_8UnitTestE
FNDA:0,_ZN7testing22EmptyTestEventListener22OnEnvironmentsSetUpEndERKNS_8UnitTestE
FNDA:0,_ZN7testing22EmptyTestEventListener16OnTestSuiteStartERKNS_9TestSuiteE
FNF:51
FNH:17
DA:335,9
DA:356,0
DA:369,0
DA:374,0
DA:375,0
DA:378,0
DA:381,0
DA:384,0
DA:415,36
DA:430,9
DA:434,0
DA:467,9
DA:470,9
DA:491,0
DA:494,0
DA:540,18
DA:548,27
DA:552,0
DA:553,9
DA:559,0
DA:560,0
DA:565,18
DA:568,18
DA:571,0
DA:589,0
DA:592,0
DA:595,9
DA:599,18
DA:627,0
DA:628,0
DA:638,9
DA:639,9
DA:640,9
DA:694,2
DA:698,0
DA:699,1
DA:704,13
DA:731,0
DA:734,2
DA:735,6
DA:739,1
DA:743,0
DA:751,3
DA:758,2
DA:762,9
DA:770,10
DA:780,1
DA:781,1
DA:782,1
DA:792,1
DA:793,1
DA:794,0
DA:796,1
DA:800,1
DA:801,1
DA:802,0
DA:804,1
DA:807,9
DA:808,18
DA:812,9
DA:813,18
DA:817,18
DA:818,36
DA:823,9
DA:824,18
DA:828,0
DA:829,0
DA:833,0
DA:834,0
DA:838,36
DA:839,36
DA:896,0
DA:899,0
DA:902,0
DA:925,2
DA:927,0
DA:945,1
DA:949,0
DA:956,0
DA:967,1
DA:971,0
DA:992,0
DA:994,0
DA:995,0
DA:996,0
DA:997,0
DA:998,0
DA:999,0
DA:1002,0
DA:1005,0
DA:1006,0
DA:1007,0
DA:1008,0
DA:1009,0
DA:1011,0
DA:1014,0
DA:1015,0
DA:1016,0
DA:1017,0
DA:1018,0
DA:1280,146
DA:1281,7
DA:1374,0
DA:1379,0
DA:1391,11007
DA:1394,11007
DA:1395,11007
DA:1398,0
DA:1410,11007
DA:1413,11007
DA:1631,0
DA:1632,0
DA:1634,0
DA:2299,0
DA:2306,0
DA:2307,0
DA:2313,0
DA:2315,0
DA:2318,0
DA:2334,2
LF:120
LH:55
end_of_record
TN:
SF:/home/runner/work/TDDThreadSafeContainer/TDDThreadSafeContainer/tests/googletest/googletest/include/gtest/internal/gtest-death-test-internal.h
FN:277,279,_ZN7testing8internal24InternalRunDeathTestFlagD2Ev
FNDA:0,_ZN7testing8internal24InternalRunDeathTestFlagD2Ev
FNF:1
FNH:0
DA:112,0
DA:175,1
DA:184,1
DA:273,0
DA:275,0
DA:277,0
DA:278,0
DA:279,0
DA:281,0
DA:282,0
DA:283,0
DA:284,0
LF:12
LH:2
end_of_record
TN:
SF:/home/runner/work/TDDThreadSafeContainer/TDDThreadSafeContainer/tests/googletest/googletest/include/gtest/internal/gtest-filepath.h
FNF:0
FNH:0
DA:70,2
DA:72,1
DA:73,0
DA:76,0
DA:77,0
DA:84,0
DA:85,0
DA:86,0
DA:89,0
DA:91,0
DA:92,0
DA:124,10
LF:12
LH:3
end_of_record
TN:
SF:/home/runner/work/TDDThreadSafeContainer/TDDThreadSafeContainer/tests/googletest/googletest/include/gtest/internal/gtest-internal.h
FN:293,293,_ZN7testing8internal13FloatingPointIdEC2Ed
FN:293,293,_ZN7testing8internal13FloatingPointIfEC2Ef
FN:336,342,_ZNK7testing8internal13FloatingPointIdE12AlmostEqualsERKS2_
FN:336,342,_ZNK7testing8internal13FloatingPointIfE12AlmostEqualsERKS2_
FN:448,448,_ZN7testing8internal15TestFactoryImplI33storage_test_test_store_load_TestE10CreateTestEv
FN:448,448,_ZN7testing8internal15TestFactoryImplI36storage_test_test_invalid_store_TestE10CreateTestEv
FN:448,448,_ZN7testing8internal15TestFactoryImplI36storage_test_test_thread_access_TestE10CreateTestEv
FN:448,448,_ZN7testing8internal15TestFactoryImplI38storage_test_test_remove_contains_TestE10CreateTestEv
FN:448,448,_ZN7testing8internal15TestFactoryImplI38storage_test_test_unexistant_load_TestE10CreateTestEv
FN:448,448,_ZN7testing8internal15TestFactoryImplI40storage_test_test_unexistant_remove_TestE10CreateTestEv
FN:448,448,_ZN7testing8internal15TestFactoryImplI42storage_test_test_invalid_constructor_TestE10CreateTestEv
FN:448,448,_ZN7testing8internal15TestFactoryImplI58storage_test_test_correct_storage_and_cache_work_load_TestE10CreateTestEv
FN:448,448,_ZN7testing8internal15TestFactoryImplI60storage_test_test_correct_storage_and_cache_work_remove_TestE10CreateTestEv
FN:497,516,_ZN7testing8internal16SuiteApiResolverINS_4TestEE19GetSetUpCaseOrSuiteEPKci
FN:518,537,_ZN7testing8internal16SuiteApiResolverINS_4TestEE22GetTearDownCaseOrSuiteEPKci
FN:627,635,_ZN7testing8internal9SkipCommaEPKc
FN:639,642,_ZN7testing8internal19GetPrefixUntilCommaB5cxx11EPKc
FNDA:0,_ZN7testing8internal13FloatingPointIdEC2Ed
FNDA:0,_ZN7testing8internal13FloatingPointIfEC2Ef
FNDA:0,_ZNK7testing8internal13FloatingPointIdE12AlmostEqualsERKS2_
FNDA:0,_ZNK7testing8internal13FloatingPointIfE12AlmostEqualsERKS2_
FNDA:1,_ZN7testing8internal15TestFactoryImplI33storage_test_test_store_load_TestE10CreateTestEv
FNDA:1,_ZN7testing8internal15TestFactoryImplI36storage_test_test_invalid_store_TestE10CreateTestEv
FNDA:1,_ZN7testing8internal15TestFactoryImplI36storage_test_test_thread_access_TestE10CreateTestEv
FNDA:1,_ZN7testing8internal15TestFactoryImplI38storage_test_test_remove_contains_TestE10CreateTestEv
FNDA:1,_ZN7testing8internal15TestFactoryImplI38storage_test_test_unexistant_load_TestE10CreateTestEv
FNDA:1,_ZN7testing8internal15TestFactoryImplI40storage_test_test_unexistant_remove_TestE10CreateTestEv
FNDA:1,_ZN7testing8internal15TestFactoryImplI42storage_test_test_invalid_constructor_TestE10CreateTestEv
FNDA:1,_ZN7testing8internal15TestFactoryImplI58storage_test_test_correct_storage_and_cache_work_load_TestE10CreateTestEv
FNDA:1,_ZN7testing8internal15TestFactoryImplI60storage_test_test_correct_storage_and_cache_work_remove_TestE10CreateTestEv
FNDA:9,_ZN7testing8internal16SuiteApiResolverINS_4TestEE19GetSetUpCaseOrSuiteEPKci
FNDA:9,_ZN7testing8internal16SuiteApiResolverINS_4TestEE22GetTearDownCaseOrSuiteEPKci
FNDA:0,_ZN7testing8internal9SkipCommaEPKc
FNDA:0,_ZN7testing8internal19GetPrefixUntilCommaB5cxx11EPKc
FNF:17
FNH:11
DA:293,0
DA:315,0
DA:318,0
DA:324,0
DA:327,0
DA:336,0
DA:339,0
DA:341,0
DA:360,0
DA:361,0
DA:363,0
DA:366,0
DA:372,0
DA:373,0
DA:374,0
DA:375,0
DA:410,9
DA:436,0
DA:448,9
DA:468,36
DA:469,0
DA:470,0
DA:497,9
DA:501,9
DA:503,9
DA:505,9
DA:508,0
DA:510,9
DA:518,9
DA:522,9
DA:524,9
DA:526,9
DA:529,0
DA:531,9
DA:627,0
DA:628,0
DA:629,0
DA:632,0
DA:639,0
DA:640,0
DA:641,0
DA:815,0
DA:828,5
DA:829,5
DA:845,1
DA:847,0
LF:46
LH:16
end_of_record
TN:
SF:/home/runner/work/TDDThreadSafeContainer/TDDThreadSafeContainer/tests/googletest/googletest/include/gtest/internal/gtest-param-util.h
FN:694,698,_ZN7testing8internal30ParameterizedTestSuiteRegistryD2Ev
FNDA:1,_ZN7testing8internal30ParameterizedTestSuiteRegistryD2Ev
FNF:1
FNH:1
DA:693,1
DA:694,1
DA:695,1
DA:696,0
DA:698,1
DA:734,1
DA:735,1
DA:736,0
DA:765,2
DA:779,0
DA:780,0
DA:781,0
LF:12
LH:7
end_of_record
TN:
SF:/home/runner/work/TDDThreadSafeContainer/TDDThreadSafeContainer/tests/googletest/googletest/include/gtest/internal/gtest-port.h
FN:1158,1165,_ZN7testing8internal27CheckedDowncastToActualTypeINS0_11ThreadLocalIPNS_31TestPartResultReporterInterfaceEE11ValueHolderENS0_26ThreadLocalValueHolderBaseEEEPT_PT0_
FN:1158,1165,_ZN7testing8internal27CheckedDowncastToActualTypeINS0_11ThreadLocalISt6vectorINS0_9TraceInfoESaIS4_EEE11ValueHolderENS0_26ThreadLocalValueHolderBaseEEEPT_PT0_
FN:1657,1661,_ZN7testing8internal9MutexBase4LockEv
FN:1664,1671,_ZN7testing8internal9MutexBase6UnlockEv
FN:1714,1717,_ZN7testing8internal5MutexC2Ev
FN:1718,1718,_ZN7testing8internal5MutexD2Ev
FN:1753,1753,_ZN7testing8internal26ThreadLocalValueHolderBaseD0Ev
FN:1753,1753,_ZN7testing8internal26ThreadLocalValueHolderBaseD2Ev
FN:1758,1760,DeleteThreadLocalValue
FN:1766,1767,_ZN7testing8internal11ThreadLocalISt6vectorINS0_9TraceInfoESaIS3_EEEC2Ev
FN:1768,1770,_ZN7testing8internal11ThreadLocalIPNS_31TestPartResultReporterInterfaceEEC2ERKS3_
FN:1772,1779,_ZN7testing8internal11ThreadLocalIPNS_31TestPartResultReporterInterfaceEED2Ev
FN:1772,1779,_ZN7testing8internal11ThreadLocalISt6vectorINS0_9TraceInfoESaIS3_EEED2Ev
FN:1801,1808,_ZN7testing8internal11ThreadLocalIPNS_31TestPartResultReporterInterfaceEE9CreateKeyEv
FN:1801,1808,_ZN7testing8internal11ThreadLocalISt6vectorINS0_9TraceInfoESaIS3_EEE9CreateKeyEv
FN:1810,1821,_ZNK7testing8internal11ThreadLocalIPNS_31TestPartResultReporterInterfaceEE16GetOrCreateValueEv
FN:1810,1821,_ZNK7testing8internal11ThreadLocalISt6vectorINS0_9TraceInfoESaIS3_EEE16GetOrCreateValueEv
FN:1837,1837,_ZNK7testing8internal11ThreadLocalISt6vectorINS0_9TraceInfoESaIS3_EEE25DefaultValueHolderFactory13MakeNewHolderEv
FN:1848,1850,_ZNK7testing8internal11ThreadLocalIPNS_31TestPartResultReporterInterfaceEE26InstanceValueHolderFactory13MakeNewHolderEv
FN:1955,1957,_ZN7testing8internal8IsXDigitEc
FN:1959,1961,_ZN7testing8internal8IsXDigitEDu
FN:1963,1966,_ZN7testing8internal8IsXDigitEDs
FN:1967,1970,_ZN7testing8internal8IsXDigitEDi
FN:1971,1974,_ZN7testing8internal8IsXDigitEw
FN:1983,1987,_ZN7testing8internal19StripTrailingSpacesENSt7__cxx1112basic_stringIcSt11char_traitsIcESaIcEEE
FN:2124,2126,_ZN7testing8internal5posix4ReadEiPvj
FNDA:0,_ZN7testing8internal27CheckedDowncastToActualTypeINS0_11ThreadLocalIPNS_31TestPartResultReporterInterfaceEE11ValueHolderENS0_26ThreadLocalValueHolderBaseEEEPT_PT0_
FNDA:0,_ZN7testing8internal27CheckedDowncastToActualTypeINS0_11ThreadLocalISt6vectorINS0_9TraceInfoESaIS4_EEE11ValueHolderENS0_26ThreadLocalValueHolderBaseEEEPT_PT0_
FNDA:20,_ZN7testing8internal9MutexBase4LockEv
FNDA:20,_ZN7testing8internal9MutexBase6UnlockEv
FNDA:13,_ZN7testing8internal5MutexC2Ev
FNDA:13,_ZN7testing8internal5MutexD2Ev
FNDA:0,_ZN7testing8internal26ThreadLocalValueHolderBaseD0Ev
FNDA:0,_ZN7testing8internal26ThreadLocalValueHolderBaseD2Ev
FNDA:0,DeleteThreadLocalValue
FNDA:1,_ZN7testing8internal11ThreadLocalISt6vectorINS0_9TraceInfoESaIS3_EEEC2Ev
FNDA:1,_ZN7testing8internal11ThreadLocalIPNS_31TestPartResultReporterInterfaceEEC2ERKS3_
FNDA:1,_ZN7testing8internal11ThreadLocalIPNS_31TestPartResultReporterInterfaceEED2Ev
FNDA:1,_ZN7testing8internal11ThreadLocalISt6vectorINS0_9TraceInfoESaIS3_EEED2Ev
FNDA:1,_ZN7testing8internal11ThreadLocalIPNS_31TestPartResultReporterInterfaceEE9CreateKeyEv
FNDA:1,_ZN7testing8internal11ThreadLocalISt6vectorINS0_9TraceInfoESaIS3_EEE9CreateKeyEv
FNDA:0,_ZNK7testing8internal11ThreadLocalIPNS_31TestPartResultReporterInterfaceEE16GetOrCreateValueEv
FNDA:0,_ZNK7testing8internal11ThreadLocalISt6vectorINS0_9TraceInfoESaIS3_EEE16GetOrCreateValueEv
FNDA:0,_ZNK7testing8internal11ThreadLocalISt6vectorINS0_9TraceInfoESaIS3_EEE25DefaultValueHolderFactory13MakeNewHolderEv
FNDA:0,_ZNK7testing8internal11ThreadLocalIPNS_31TestPartResultReporterInterfaceEE26InstanceValueHolderFactory13MakeNewHolderEv
FNDA:0,_ZN7testing8internal8IsXDigitEc
FNDA:0,_ZN7testing8internal8IsXDigitEDu
FNDA:0,_ZN7testing8internal8IsXDigitEDs
FNDA:0,_ZN7testing8internal8IsXDigitEDi
FNDA:0,_ZN7testing8internal8IsXDigitEw
FNDA:0,_ZN7testing8internal19StripTrailingSpacesENSt7__cxx1112basic_stringIcSt11char_traitsIcESaIcEEE
FNDA:0,_ZN7testing8internal5posix4ReadEiPvj
FNF:26
FNH:10
DA:1050,0
DA:1067,0
DA:1158,0
DA:1162,0
DA:1164,0
DA:1657,20
DA:1658,20
DA:1659,20
DA:1660,20
DA:1661,20
DA:1664,20
DA:1669,20
DA:1670,20
DA:1671,20
DA:1714,13
DA:1715,13
DA:1716,13
DA:1717,13
DA:1718,13
DA:1732,20
DA:1734,20
DA:1751,0
DA:1753,0
DA:1758,0
DA:1759,0
DA:1760,0
DA:1766,1
DA:1767,2
DA:1768,1
DA:1769,1
DA:1770,2
DA:1772,2
DA:1774,2
DA:1778,2
DA:1779,4
DA:1781,0
DA:1782,0
DA:1783,0
DA:1784,0
DA:1790,0
DA:1791,0
DA:1793,0
DA:1801,2
DA:1805,2
DA:1807,2
DA:1810,0
DA:1812,0
DA:1813,0
DA:1814,0
DA:1817,0
DA:1818,0
DA:1819,0
DA:1820,0
DA:1825,2
DA:1836,1
DA:1837,0
DA:1847,1
DA:1848,0
DA:1849,0
DA:1943,0
DA:1944,0
DA:1949,0
DA:1950,0
DA:1955,0
DA:1956,0
DA:1959,0
DA:1960,0
DA:1963,0
DA:1964,0
DA:1965,0
DA:1967,0
DA:1968,0
DA:1969,0
DA:1971,0
DA:1972,0
DA:1973,0
DA:1979,442
DA:1980,442
DA:1983,0
DA:1984,0
DA:1985,0
DA:1986,0
DA:1987,0
DA:2035,1
DA:2037,0
DA:2044,0
DA:2073,1
DA:2074,0
DA:2075,1
DA:2080,1
DA:2084,1
DA:2085,1
DA:2086,1
DA:2088,1
DA:2105,0
DA:2113,0
DA:2120,0
DA:2122,0
DA:2124,0
DA:2125,0
DA:2127,0
DA:2128,0
DA:2130,0
DA:2135,0
DA:2138,0
DA:2151,0
DA:2163,0
LF:107
LH:41
end_of_record
TN:
SF:/home/runner/work/TDDThreadSafeContainer/TDDThreadSafeContainer/tests/googletest/googletest/include/gtest/internal/gtest-type-util.h
FN:61,87,_ZN7testing8internal31CanonicalizeForStdLibVersioningENSt7__cxx1112basic_stringIcSt11char_traitsIcESaIcEEE
FN:91,121,_ZN7testing8internal11GetTypeNameB5cxx11ERKSt9type_info
FNDA:0,_ZN7testing8internal31CanonicalizeForStdLibVersioningENSt7__cxx1112basic_stringIcSt11char_traitsIcESaIcEEE
FNDA:0,_ZN7testing8internal11GetTypeNameB5cxx11ERKSt9type_info
FNF:2
FNH:0
DA:61,0
DA:62,0
DA:63,0
DA:64,0
DA:65,0
DA:67,0
DA:76,0
DA:78,0
DA:79,0
DA:83,0
DA:84,0
DA:86,0
DA:91,0
DA:92,0
DA:94,0
DA:98,0
DA:100,0
DA:101,0
DA:102,0
DA:103,0
DA:121,0
LF:21
LH:0
end_of_record
TN:
SF:/home/runner/work/TDDThreadSafeContainer/TDDThreadSafeContainer/tests/googletest/googletest/src/gtest-assertion-result.cc
FN:45,49,_ZN7testing15AssertionResultC2ERKS0_
FN:52,56,_ZN7testing15AssertionResult4swapERS0_
FN:59,63,_ZNK7testing15AssertionResultntEv
FN:66,66,_ZN7testing16AssertionSuccessEv
FN:69,69,_ZN7testing16AssertionFailureEv
FN:73,75,_ZN7testing16AssertionFailureERKNS_7MessageE
FNDA:0,_ZN7testing15AssertionResultC2ERKS0_
FNDA:0,_ZN7testing15AssertionResult4swapERS0_
FNDA:0,_ZNK7testing15AssertionResultntEv
FNDA:11007,_ZN7testing16AssertionSuccessEv
FNDA:0,_ZN7testing16AssertionFailureEv
FNDA:0,_ZN7testing16AssertionFailureERKNS_7MessageE
FNF:6
FNH:1
DA:45,0
DA:46,0
DA:47,0
DA:48,0
DA:49,0
DA:52,0
DA:53,0
DA:54,0
DA:55,0
DA:56,0
DA:59,0
DA:60,0
DA:61,0
DA:62,0
DA:63,0
DA:66,0
DA:69,0
DA:73,0
DA:74,0
LF:19
LH:0
end_of_record
TN:
SF:/home/runner/work/TDDThreadSafeContainer/TDDThreadSafeContainer/tests/googletest/googletest/src/gtest-death-test.cc
FN:1072,1074,_ZN7testing8internal16ForkingDeathTestC2EPKcNS_7MatcherIRKNSt7__cxx1112basic_stringIcSt11char_traitsIcESaIcEEEEE
FN:1079,1088,_ZN7testing8internal16ForkingDeathTest4WaitEv
FN:1094,1095,_ZN7testing8internal15NoExecDeathTestC2EPKcNS_7MatcherIRKNSt7__cxx1112basic_stringIcSt11char_traitsIcESaIcEEEEE
FN:1101,1142,_ZN7testing8internal15NoExecDeathTest10AssumeRoleEv
FN:1149,1153,_ZN7testing8internal13ExecDeathTestC2EPKcNS_7MatcherIRKNSt7__cxx1112basic_stringIcSt11char_traitsIcESaIcEEEEES3_i
FN:1185,1210,_ZN7testing8internalL22ExecDeathTestChildMainEPv
FN:1233,1236,_ZN7testing8internalL21StackLowerThanAddressEPKvPb
FN:1256,1348,_ZN7testing8internalL23ExecDeathTestSpawnChildEPKPci
FN:1354,1398,_ZN7testing8internal13ExecDeathTest10AssumeRoleEv
FN:1407,1465,_ZN7testing8internal23DefaultDeathTestFactory6CreateEPKcNS_7MatcherIRKNSt7__cxx1112basic_stringIcSt11char_traitsIcESaIcEEEEES3_iPPNS0_9DeathTestE
FN:1533,1581,_ZN7testing8internal29ParseInternalRunDeathTestFlagEv
FN:155,169,_ZN7testing8internal16InDeathTestChildEv
FN:174,174,_ZN7testing14ExitedWithCodeC2Ei
FN:177,187,_ZNK7testing14ExitedWithCodeclEi
FN:191,191,_ZN7testing14KilledBySignalC2Ei
FN:194,204,_ZNK7testing14KilledBySignalclEi
FN:213,235,_ZN7testing8internalL11ExitSummaryEi
FN:239,241,_ZN7testing8internal20ExitedUnsuccessfullyEi
FN:248,263,_ZN7testing8internalL22DeathTestThreadWarningEm
FN:293,310,_ZN7testing8internalL14DeathTestAbortERKNSt7__cxx1112basic_stringIcSt11char_traitsIcESaIcEEE
FN:346,348,_ZN7testing8internal23GetLastErrnoDescriptionB5cxx11Ev
FN:354,373,_ZN7testing8internalL21FailFromInternalErrorEi
FN:377,384,_ZN7testing8internal9DeathTestC2Ev
FN:388,393,_ZN7testing8internal9DeathTest6CreateEPKcNS_7MatcherIRKNSt7__cxx1112basic_stringIcSt11char_traitsIcESaIcEEEEES3_iPPS1_
FN:395,397,_ZN7testing8internal9DeathTest11LastMessageEv
FN:399,401,_ZN7testing8internal9DeathTest27set_last_death_test_messageERKNSt7__cxx1112basic_stringIcSt11char_traitsIcESaIcEEE
FN:418,418,_ZN7testing8internal13DeathTestImplD0Ev
FN:418,418,_ZN7testing8internal13DeathTestImplD2Ev
FN:470,509,_ZN7testing8internal13DeathTestImpl26ReadAndInterpretStatusByteEv
FN:511,511,_ZN7testing8internal13DeathTestImpl12GetErrorLogsB5cxx11Ev
FN:517,535,_ZN7testing8internal13DeathTestImpl5AbortENS0_9DeathTest11AbortReasonE
FN:540,553,_ZN7testing8internalL21FormatDeathTestOutputERKNSt7__cxx1112basic_stringIcSt11char_traitsIcESaIcEEE
FN:576,628,_ZN7testing8internal13DeathTestImpl6PassedEb
FN:633,641,_ZN7testing8internalL18CreateArgvFromArgsERSt6vectorINSt7__cxx1112basic_stringIcSt11char_traitsIcESaIcEEESaIS7_EE
FNDA:0,_ZN7testing8internal16ForkingDeathTestC2EPKcNS_7MatcherIRKNSt7__cxx1112basic_stringIcSt11char_traitsIcESaIcEEEEE
FNDA:0,_ZN7testing8internal16ForkingDeathTest4WaitEv
FNDA:0,_ZN7testing8internal15NoExecDeathTestC2EPKcNS_7MatcherIRKNSt7__cxx1112basic_stringIcSt11char_traitsIcESaIcEEEEE
FNDA:0,_ZN7testing8internal15NoExecDeathTest10AssumeRoleEv
FNDA:0,_ZN7testing8internal13ExecDeathTestC2EPKcNS_7MatcherIRKNSt7__cxx1112basic_stringIcSt11char_traitsIcESaIcEEEEES3_i
FNDA:0,_ZN7testing8internalL22ExecDeathTestChildMainEPv
FNDA:0,_ZN7testing8internalL21StackLowerThanAddressEPKvPb
FNDA:0,_ZN7testing8internalL23ExecDeathTestSpawnChildEPKPci
FNDA:0,_ZN7testing8internal13ExecDeathTest10AssumeRoleEv
FNDA:0,_ZN7testing8internal23DefaultDeathTestFactory6CreateEPKcNS_7MatcherIRKNSt7__cxx1112basic_stringIcSt11char_traitsIcESaIcEEEEES3_iPPNS0_9DeathTestE
FNDA:1,_ZN7testing8internal29ParseInternalRunDeathTestFlagEv
FNDA:0,_ZN7testing8internal16InDeathTestChildEv
FNDA:0,_ZN7testing14ExitedWithCodeC2Ei
FNDA:0,_ZNK7testing14ExitedWithCodeclEi
FNDA:0,_ZN7testing14KilledBySignalC2Ei
FNDA:0,_ZNK7testing14KilledBySignalclEi
FNDA:0,_ZN7testing8internalL11ExitSummaryEi
FNDA:0,_ZN7testing8internal20ExitedUnsuccessfullyEi
FNDA:0,_ZN7testing8internalL22DeathTestThreadWarningEm
FNDA:0,_ZN7testing8internalL14DeathTestAbortERKNSt7__cxx1112basic_stringIcSt11char_traitsIcESaIcEEE
FNDA:0,_ZN7testing8internal23GetLastErrnoDescriptionB5cxx11Ev
FNDA:0,_ZN7testing8internalL21FailFromInternalErrorEi
FNDA:0,_ZN7testing8internal9DeathTestC2Ev
FNDA:0,_ZN7testing8internal9DeathTest6CreateEPKcNS_7MatcherIRKNSt7__cxx1112basic_stringIcSt11char_traitsIcESaIcEEEEES3_iPPS1_
FNDA:0,_ZN7testing8internal9DeathTest11LastMessageEv
FNDA:0,_ZN7testing8internal9DeathTest27set_last_death_test_messageERKNSt7__cxx1112basic_stringIcSt11char_traitsIcESaIcEEE
FNDA:0,_ZN7testing8internal13DeathTestImplD0Ev
FNDA:0,_ZN7testing8internal13DeathTestImplD2Ev
FNDA:0,_ZN7testing8internal13DeathTestImpl26ReadAndInterpretStatusByteEv
FNDA:0,_ZN7testing8internal13DeathTestImpl12GetErrorLogsB5cxx11Ev
FNDA:0,_ZN7testing8internal13DeathTestImpl5AbortENS0_9DeathTest11AbortReasonE
FNDA:0,_ZN7testing8internalL21FormatDeathTestOutputERKNSt7__cxx1112basic_stringIcSt11char_traitsIcESaIcEEE
FNDA:0,_ZN7testing8internal13DeathTestImpl6PassedEb
FNDA:0,_ZN7testing8internalL18CreateArgvFromArgsERSt6vectorINSt7__cxx1112basic_stringIcSt11char_traitsIcESaIcEEESaIS7_EE
FNF:34
FNH:1
DA:155,0
DA:164,0
DA:165,0
DA:167,0
DA:174,0
DA:177,0
DA:184,0
DA:191,0
DA:194,0
DA:203,0
DA:213,0
DA:214,0
DA:222,0
DA:223,0
DA:224,0
DA:225,0
DA:228,0
DA:229,0
DA:234,0
DA:235,0
DA:239,0
DA:240,0
DA:248,0
DA:249,0
DA:250,0
DA:251,0
DA:252,0
DA:253,0
DA:255,0
DA:257,0
DA:259,0
DA:260,0
DA:261,0
DA:262,0
DA:263,0
DA:293,0
DA:297,0
DA:298,0
DA:299,0
DA:300,0
DA:301,0
DA:302,0
DA:303,0
DA:304,0
DA:306,0
DA:307,0
DA:308,0
DA:346,0
DA:347,0
DA:354,0
DA:355,0
DA:360,0
DA:361,0
DA:362,0
DA:364,0
DA:366,0
DA:367,0
DA:369,0
DA:370,0
DA:371,0
DA:373,0
DA:377,0
DA:378,0
DA:379,0
DA:380,0
DA:384,0
DA:388,0
DA:391,0
DA:392,0
DA:395,0
DA:396,0
DA:399,0
DA:400,0
DA:401,0
DA:408,0
DA:409,0
DA:410,0
DA:411,0
DA:412,0
DA:413,0
DA:414,0
DA:415,0
DA:418,0
DA:423,0
DA:424,0
DA:425,0
DA:426,0
DA:427,0
DA:428,0
DA:429,0
DA:430,0
DA:431,0
DA:432,0
DA:433,0
DA:470,0
DA:471,0
DA:472,0
DA:478,0
DA:479,0
DA:480,0
DA:482,0
DA:483,0
DA:484,0
DA:485,0
DA:486,0
DA:487,0
DA:488,0
DA:489,0
DA:490,0
DA:491,0
DA:492,0
DA:493,0
DA:494,0
DA:495,0
DA:496,0
DA:498,0
DA:499,0
DA:500,0
DA:501,0
DA:504,0
DA:505,0
DA:507,0
DA:508,0
DA:509,0
DA:511,0
DA:517,0
DA:521,0
DA:525,0
DA:534,0
DA:540,0
DA:541,0
DA:542,0
DA:543,0
DA:544,0
DA:545,0
DA:546,0
DA:547,0
DA:549,0
DA:550,0
DA:551,0
DA:552,0
DA:553,0
DA:576,0
DA:577,0
DA:579,0
DA:581,0
DA:582,0
DA:584,0
DA:585,0
DA:586,0
DA:587,0
DA:588,0
DA:589,0
DA:590,0
DA:591,0
DA:592,0
DA:593,0
DA:594,0
DA:595,0
DA:596,0
DA:597,0
DA:598,0
DA:599,0
DA:600,0
DA:601,0
DA:602,0
DA:603,0
DA:606,0
DA:607,0
DA:608,0
DA:609,0
DA:610,0
DA:611,0
DA:612,0
DA:614,0
DA:615,0
DA:616,0
DA:617,0
DA:620,0
DA:621,0
DA:622,0
DA:623,0
DA:626,0
DA:627,0
DA:628,0
DA:633,0
DA:634,0
DA:635,0
DA:636,0
DA:637,0
DA:639,0
DA:640,0
DA:641,0
DA:1064,0
DA:1072,0
DA:1073,0
DA:1074,0
DA:1079,0
DA:1080,0
DA:1082,0
DA:1084,0
DA:1085,0
DA:1086,0
DA:1087,0
DA:1094,0
DA:1095,0
DA:1101,0
DA:1102,0
DA:1103,0
DA:1104,0
DA:1107,0
DA:1108,0
DA:1110,0
DA:1111,0
DA:1119,0
DA:1121,0
DA:1122,0
DA:1123,0
DA:1124,0
DA:1125,0
DA:1126,0
DA:1130,0
DA:1133,0
DA:1134,0
DA:1135,0
DA:1137,0
DA:1138,0
DA:1139,0
DA:1140,0
DA:1149,0
DA:1151,0
DA:1152,0
DA:1153,0
DA:1157,0
DA:1158,0
DA:1164,0
DA:1185,0
DA:1186,0
DA:1187,0
DA:1192,0
DA:1193,0
DA:1195,0
DA:1196,0
DA:1197,0
DA:1206,0
DA:1207,0
DA:1208,0
DA:1233,0
DA:1234,0
DA:1235,0
DA:1236,0
DA:1241,0
DA:1242,0
DA:1243,0
DA:1244,0
DA:1245,0
DA:1256,0
DA:1257,0
DA:1258,0
DA:1295,0
DA:1296,0
DA:1297,0
DA:1298,0
DA:1299,0
DA:1300,0
DA:1305,0
DA:1307,0
DA:1308,0
DA:1309,0
DA:1311,0
DA:1313,0
DA:1321,0
DA:1322,0
DA:1323,0
DA:1324,0
DA:1325,0
DA:1329,0
DA:1331,0
DA:1337,0
DA:1338,0
DA:1342,0
DA:1346,0
DA:1347,0
DA:1354,0
DA:1355,0
DA:1356,0
DA:1357,0
DA:1358,0
DA:1359,0
DA:1361,0
DA:1362,0
DA:1363,0
DA:1366,0
DA:1367,0
DA:1370,0
DA:1372,0
DA:1373,0
DA:1374,0
DA:1375,0
DA:1376,0
DA:1377,0
DA:1378,0
DA:1379,0
DA:1380,0
DA:1381,0
DA:1382,0
DA:1384,0
DA:1386,0
DA:1389,0
DA:1391,0
DA:1392,0
DA:1393,0
DA:1394,0
DA:1395,0
DA:1396,0
DA:1397,0
DA:1398,0
DA:1407,0
DA:1411,0
DA:1412,0
DA:1413,0
DA:1414,0
DA:1415,0
DA:1417,0
DA:1418,0
DA:1419,0
DA:1420,0
DA:1421,0
DA:1422,0
DA:1423,0
DA:1426,0
DA:1427,0
DA:1428,0
DA:1429,0
DA:1449,0
DA:1450,0
DA:1451,0
DA:1452,0
DA:1458,0
DA:1459,0
DA:1461,0
DA:1533,1
DA:1534,1
DA:1538,0
DA:1539,0
DA:1540,0
DA:1541,0
DA:1542,0
DA:1571,0
DA:1572,0
DA:1573,0
DA:1574,0
DA:1580,0
DA:1581,0
LF:354
LH:2
end_of_record
TN:
SF:/home/runner/work/TDDThreadSafeContainer/TDDThreadSafeContainer/tests/googletest/googletest/src/gtest-filepath.cc
FN:101,124,_ZN7testing8internal8FilePath13GetCurrentDirEv
FN:130,137,_ZNK7testing8internal8FilePath15RemoveExtensionEPKc
FN:142,153,_ZNK7testing8internal8FilePath21FindLastPathSeparatorEv
FN:155,191,_ZNK7testing8internal8FilePath19CalculateRootLengthEv
FN:199,202,_ZNK7testing8internal8FilePath19RemoveDirectoryNameEv
FN:210,219,_ZNK7testing8internal8FilePath14RemoveFileNameEv
FN:227,238,_ZN7testing8internal8FilePath12MakeFileNameERKS1_S3_iPKc
FN:242,247,_ZN7testing8internal8FilePath11ConcatPathsERKS1_S3_
FN:251,261,_ZNK7testing8internal8FilePath21FileOrDirectoryExistsEv
FN:265,291,_ZNK7testing8internal8FilePath15DirectoryExistsEv
FN:295,299,_ZNK7testing8internal8FilePath15IsRootDirectoryEv
FN:302,302,_ZNK7testing8internal8FilePath14IsAbsolutePathEv
FN:312,321,_ZN7testing8internal8FilePath22GenerateUniqueFileNameERKS1_S3_PKc
FN:326,329,_ZNK7testing8internal8FilePath11IsDirectoryEv
FN:334,345,_ZNK7testing8internal8FilePath28CreateDirectoriesRecursivelyEv
FN:351,372,_ZNK7testing8internal8FilePath12CreateFolderEv
FN:377,380,_ZNK7testing8internal8FilePath27RemoveTrailingPathSeparatorEv
FN:386,409,_ZN7testing8internal8FilePath9NormalizeEv
FNDA:1,_ZN7testing8internal8FilePath13GetCurrentDirEv
FNDA:0,_ZNK7testing8internal8FilePath15RemoveExtensionEPKc
FNDA:0,_ZNK7testing8internal8FilePath21FindLastPathSeparatorEv
FNDA:0,_ZNK7testing8internal8FilePath19CalculateRootLengthEv
FNDA:0,_ZNK7testing8internal8FilePath19RemoveDirectoryNameEv
FNDA:0,_ZNK7testing8internal8FilePath14RemoveFileNameEv
FNDA:0,_ZN7testing8internal8FilePath12MakeFileNameERKS1_S3_iPKc
FNDA:0,_ZN7testing8internal8FilePath11ConcatPathsERKS1_S3_
FNDA:0,_ZNK7testing8internal8FilePath21FileOrDirectoryExistsEv
FNDA:0,_ZNK7testing8internal8FilePath15DirectoryExistsEv
FNDA:0,_ZNK7testing8internal8FilePath15IsRootDirectoryEv
FNDA:0,_ZNK7testing8internal8FilePath14IsAbsolutePathEv
FNDA:0,_ZN7testing8internal8FilePath22GenerateUniqueFileNameERKS1_S3_PKc
FNDA:0,_ZNK7testing8internal8FilePath11IsDirectoryEv
FNDA:0,_ZNK7testing8internal8FilePath28CreateDirectoriesRecursivelyEv
FNDA:0,_ZNK7testing8internal8FilePath12CreateFolderEv
FNDA:0,_ZNK7testing8internal8FilePath27RemoveTrailingPathSeparatorEv
FNDA:1,_ZN7testing8internal8FilePath9NormalizeEv
FNF:18
FNH:2
DA:101,1
DA:114,1
DA:115,1
DA:122,2
DA:130,0
DA:131,0
DA:132,0
DA:133,0
DA:134,0
DA:136,0
DA:137,0
DA:142,0
DA:143,0
DA:152,0
DA:155,0
DA:156,0
DA:157,0
DA:158,0
DA:186,0
DA:187,0
DA:190,0
DA:199,0
DA:200,0
DA:201,0
DA:210,0
DA:211,0
DA:212,0
DA:213,0
DA:214,0
DA:216,0
DA:218,0
DA:219,0
DA:227,0
DA:230,0
DA:231,0
DA:232,0
DA:234,0
DA:235,0
DA:237,0
DA:238,0
DA:242,0
DA:244,0
DA:245,0
DA:246,0
DA:247,0
DA:251,0
DA:258,0
DA:259,0
DA:265,0
DA:266,0
DA:273,0
DA:285,0
DA:286,0
DA:287,0
DA:290,0
DA:295,0
DA:296,0
DA:297,0
DA:298,0
DA:302,0
DA:312,0
DA:315,0
DA:316,0
DA:317,0
DA:318,0
DA:319,0
DA:320,0
DA:321,0
DA:326,0
DA:327,0
DA:328,0
DA:334,0
DA:335,0
DA:339,0
DA:343,0
DA:344,0
DA:345,0
DA:351,0
DA:365,0
DA:368,0
DA:369,0
DA:377,0
DA:378,0
DA:379,0
DA:386,1
DA:387,1
DA:389,1
DA:398,70
DA:399,69
DA:400,69
DA:401,63
DA:402,11
DA:403,6
DA:405,69
DA:408,1
DA:409,1
LF:96
LH:16
end_of_record
TN:
SF:/home/runner/work/TDDThreadSafeContainer/TDDThreadSafeContainer/tests/googletest/googletest/src/gtest-internal-inl.h
FN:1023,1048,_ZN7testing8internal18ParseNaturalNumberIiEEbRKNSt7__cxx1112basic_stringIcSt11char_traitsIcESaIcEEEPT_
FN:1089,1089,_ZN7testing8internal17StreamingListener20AbstractSocketWriter15CloseConnectionEv
FN:1092,1092,_ZN7testing8internal17StreamingListener20AbstractSocketWriter6SendLnERKNSt7__cxx1112basic_stringIcSt11char_traitsIcESaIcEEE
FN:1098,1101,_ZN7testing8internal17StreamingListener12SocketWriterC2ERKNSt7__cxx1112basic_stringIcSt11char_traitsIcESaIcEEESA_
FN:1103,1105,_ZN7testing8internal17StreamingListener12SocketWriterD0Ev
FN:1103,1105,_ZN7testing8internal17StreamingListener12SocketWriterD2Ev
FN:1108,1117,_ZN7testing8internal17StreamingListener12SocketWriter4SendERKNSt7__cxx1112basic_stringIcSt11char_traitsIcESaIcEEE
FN:1124,1130,_ZN7testing8internal17StreamingListener12SocketWriter15CloseConnectionEv
FN:1143,1146,_ZN7testing8internal17StreamingListenerC2ERKNSt7__cxx1112basic_stringIcSt11char_traitsIcESaIcEEES9_
FN:1153,1155,_ZN7testing8internal17StreamingListener18OnTestProgramStartERKNS_8UnitTestE
FN:1157,1164,_ZN7testing8internal17StreamingListener16OnTestProgramEndERKNS_8UnitTestE
FN:1166,1170,_ZN7testing8internal17StreamingListener20OnTestIterationStartERKNS_8UnitTestEi
FN:1172,1177,_ZN7testing8internal17StreamingListener18OnTestIterationEndERKNS_8UnitTestEi
FN:1181,1183,_ZN7testing8internal17StreamingListener16OnTestSuiteStartERKNS_9TestSuiteE
FN:1187,1191,_ZN7testing8internal17StreamingListener14OnTestSuiteEndERKNS_9TestSuiteE
FN:1193,1195,_ZN7testing8internal17StreamingListener11OnTestStartERKNS_8TestInfoE
FN:1197,1201,_ZN7testing8internal17StreamingListener9OnTestEndERKNS_8TestInfoE
FN:1203,1209,_ZN7testing8internal17StreamingListener16OnTestPartResultERKNS_14TestPartResultE
FN:1217,1217,_ZN7testing8internal17StreamingListener5StartEv
FN:131,137,_ZN7testing8internal17GetNextRandomSeedEi
FN:144,167,_ZN7testing8internal14GTestFlagSaverC2Ev
FN:170,193,_ZN7testing8internal14GTestFlagSaverD2Ev
FN:305,325,_ZN7testing8internal12ShuffleRangeIiEEvPNS0_6RandomEiiPSt6vectorIT_SaIS5_EE
FN:336,338,_ZN7testing8internalL6DeleteINS_11EnvironmentEEEvPT_
FN:336,338,_ZN7testing8internalL6DeleteINS_17TestEventListenerEEEvPT_
FN:336,338,_ZN7testing8internalL6DeleteINS_8TestInfoEEEvPT_
FN:336,338,_ZN7testing8internalL6DeleteINS_9TestSuiteEEEvPT_
FN:585,587,_ZNK7testing8internal12UnitTestImpl6FailedEv
FN:675,696,_ZN7testing8internal12UnitTestImpl11AddTestInfoEPFvvES3_PNS_8TestInfoE
FN:773,775,_ZN7testing8internal12UnitTestImpl34InitDeathTestSubprocessControlInfoEv
FNDA:0,_ZN7testing8internal18ParseNaturalNumberIiEEbRKNSt7__cxx1112basic_stringIcSt11char_traitsIcESaIcEEEPT_
FNDA:0,_ZN7testing8internal17StreamingListener20AbstractSocketWriter15CloseConnectionEv
FNDA:0,_ZN7testing8internal17StreamingListener20AbstractSocketWriter6SendLnERKNSt7__cxx1112basic_stringIcSt11char_traitsIcESaIcEEE
FNDA:0,_ZN7testing8internal17StreamingListener12SocketWriterC2ERKNSt7__cxx1112basic_stringIcSt11char_traitsIcESaIcEEESA_
FNDA:0,_ZN7testing8internal17StreamingListener12SocketWriterD0Ev
FNDA:0,_ZN7testing8internal17StreamingListener12SocketWriterD2Ev
FNDA:0,_ZN7testing8internal17StreamingListener12SocketWriter4SendERKNSt7__cxx1112basic_stringIcSt11char_traitsIcESaIcEEE
FNDA:0,_ZN7testing8internal17StreamingListener12SocketWriter15CloseConnectionEv
FNDA:0,_ZN7testing8internal17StreamingListenerC2ERKNSt7__cxx1112basic_stringIcSt11char_traitsIcESaIcEEES9_
FNDA:0,_ZN7testing8internal17StreamingListener18OnTestProgramStartERKNS_8UnitTestE
FNDA:0,_ZN7testing8internal17StreamingListener16OnTestProgramEndERKNS_8UnitTestE
FNDA:0,_ZN7testing8internal17StreamingListener20OnTestIterationStartERKNS_8UnitTestEi
FNDA:0,_ZN7testing8internal17StreamingListener18OnTestIterationEndERKNS_8UnitTestEi
FNDA:0,_ZN7testing8internal17StreamingListener16OnTestSuiteStartERKNS_9TestSuiteE
FNDA:0,_ZN7testing8internal17StreamingListener14OnTestSuiteEndERKNS_9TestSuiteE
FNDA:0,_ZN7testing8internal17StreamingListener11OnTestStartERKNS_8TestInfoE
FNDA:0,_ZN7testing8internal17StreamingListener9OnTestEndERKNS_8TestInfoE
FNDA:0,_ZN7testing8internal17StreamingListener16OnTestPartResultERKNS_14TestPartResultE
FNDA:0,_ZN7testing8internal17StreamingListener5StartEv
FNDA:0,_ZN7testing8internal17GetNextRandomSeedEi
FNDA:9,_ZN7testing8internal14GTestFlagSaverC2Ev
FNDA:9,_ZN7testing8internal14GTestFlagSaverD2Ev
FNDA:0,_ZN7testing8internal12ShuffleRangeIiEEvPNS0_6RandomEiiPSt6vectorIT_SaIS5_EE
FNDA:0,_ZN7testing8internalL6DeleteINS_11EnvironmentEEEvPT_
FNDA:1,_ZN7testing8internalL6DeleteINS_17TestEventListenerEEEvPT_
FNDA:9,_ZN7testing8internalL6DeleteINS_8TestInfoEEEvPT_
FNDA:1,_ZN7testing8internalL6DeleteINS_9TestSuiteEEEvPT_
FNDA:2,_ZNK7testing8internal12UnitTestImpl6FailedEv
FNDA:9,_ZN7testing8internal12UnitTestImpl11AddTestInfoEPFvvES3_PNS_8TestInfoE
FNDA:1,_ZN7testing8internal12UnitTestImpl34InitDeathTestSubprocessControlInfoEv
FNF:30
FNH:8
DA:114,1
DA:115,1
DA:116,2
DA:117,1
DA:121,1
DA:122,1
DA:125,1
DA:131,0
DA:132,0
DA:133,0
DA:134,0
DA:135,0
DA:136,0
DA:144,9
DA:145,9
DA:146,9
DA:147,9
DA:148,9
DA:149,9
DA:150,9
DA:151,9
DA:152,9
DA:153,9
DA:154,9
DA:155,9
DA:156,9
DA:157,9
DA:158,9
DA:159,9
DA:160,9
DA:161,9
DA:163,9
DA:164,9
DA:165,9
DA:166,9
DA:167,9
DA:170,9
DA:171,9
DA:172,9
DA:173,9
DA:174,9
DA:175,9
DA:176,9
DA:177,9
DA:178,9
DA:179,9
DA:180,9
DA:181,9
DA:182,9
DA:183,9
DA:184,9
DA:185,9
DA:186,9
DA:187,9
DA:189,9
DA:190,9
DA:191,9
DA:192,9
DA:193,9
DA:276,0
DA:279,0
DA:280,164
DA:281,85
DA:288,7
DA:289,14
DA:295,9
DA:296,10
DA:297,10
DA:305,0
DA:307,0
DA:308,0
DA:309,0
DA:310,0
DA:311,0
DA:312,0
DA:313,0
DA:317,0
DA:318,0
DA:319,0
DA:321,0
DA:322,0
DA:323,0
DA:325,0
DA:329,0
DA:330,0
DA:336,11
DA:337,11
DA:338,11
DA:343,0
DA:348,0
DA:351,0
DA:352,0
DA:411,0
DA:440,0
DA:461,0
DA:469,1
DA:488,1
DA:574,0
DA:577,1
DA:581,2
DA:585,2
DA:586,6
DA:591,0
DA:592,0
DA:593,0
DA:598,0
DA:603,0
DA:604,2
DA:605,1
DA:609,12
DA:616,2
DA:675,9
DA:686,9
DA:687,1
DA:688,1
DA:689,0
DA:693,9
DA:695,9
DA:696,9
DA:700,0
DA:701,0
DA:704,0
DA:705,1
DA:711,0
DA:712,0
DA:730,1
DA:731,2
DA:756,9
DA:757,9
DA:758,0
DA:762,0
DA:765,0
DA:766,0
DA:773,1
DA:774,1
DA:775,1
DA:780,0
DA:781,0
DA:785,0
DA:786,0
DA:812,0
DA:815,0
DA:826,48
DA:843,1
DA:846,2
DA:847,2
DA:853,18
DA:854,18
DA:982,0
DA:983,114
DA:1023,0
DA:1027,0
DA:1030,0
DA:1037,0
DA:1038,0
DA:1042,0
DA:1043,0
DA:1044,0
DA:1045,0
DA:1081,0
DA:1083,0
DA:1089,0
DA:1092,0
DA:1098,0
DA:1099,0
DA:1100,0
DA:1101,0
DA:1103,0
DA:1104,0
DA:1105,0
DA:1108,0
DA:1109,0
DA:1110,0
DA:1112,0
DA:1113,0
DA:1114,0
DA:1115,0
DA:1117,0
DA:1124,0
DA:1125,0
DA:1126,0
DA:1128,0
DA:1129,0
DA:1130,0
DA:1143,0
DA:1144,0
DA:1145,0
DA:1146,0
DA:1153,0
DA:1154,0
DA:1155,0
DA:1157,0
DA:1160,0
DA:1163,0
DA:1164,0
DA:1166,0
DA:1168,0
DA:1169,0
DA:1170,0
DA:1172,0
DA:1174,0
DA:1175,0
DA:1177,0
DA:1181,0
DA:1182,0
DA:1183,0
DA:1187,0
DA:1188,0
DA:1189,0
DA:1191,0
DA:1193,0
DA:1194,0
DA:1195,0
DA:1197,0
DA:1198,0
DA:1199,0
DA:1200,0
DA:1201,0
DA:1203,0
DA:1204,0
DA:1205,0
DA:1206,0
DA:1207,0
DA:1208,0
DA:1209,0
DA:1213,0
DA:1217,0
DA:1219,0
LF:228
LH:95
end_of_record
TN:
SF:/home/runner/work/TDDThreadSafeContainer/TDDThreadSafeContainer/tests/googletest/googletest/src/gtest-matchers.cc
FN:46,46,_ZN7testing7MatcherIRKNSt7__cxx1112basic_stringIcSt11char_traitsIcESaIcEEEEC2ES8_
FN:50,52,_ZN7testing7MatcherIRKNSt7__cxx1112basic_stringIcSt11char_traitsIcESaIcEEEEC2EPKc
FN:56,56,_ZN7testing7MatcherINSt7__cxx1112basic_stringIcSt11char_traitsIcESaIcEEEEC2ERKS6_
FN:60,60,_ZN7testing7MatcherINSt7__cxx1112basic_stringIcSt11char_traitsIcESaIcEEEEC2EPKc
FN:65,67,_ZN7testing7MatcherIRKSt17basic_string_viewIcSt11char_traitsIcEEEC2ERKNSt7__cxx1112basic_stringIcS3_SaIcEEE
FN:71,73,_ZN7testing7MatcherIRKSt17basic_string_viewIcSt11char_traitsIcEEEC2EPKc
FN:77,79,_ZN7testing7MatcherIRKSt17basic_string_viewIcSt11char_traitsIcEEEC2ES4_
FN:83,83,_ZN7testing7MatcherISt17basic_string_viewIcSt11char_traitsIcEEEC2ERKNSt7__cxx1112basic_stringIcS3_SaIcEEE
FN:87,89,_ZN7testing7MatcherISt17basic_string_viewIcSt11char_traitsIcEEEC2EPKc
FN:93,95,_ZN7testing7MatcherISt17basic_string_viewIcSt11char_traitsIcEEEC2ES4_
FNDA:0,_ZN7testing7MatcherIRKNSt7__cxx1112basic_stringIcSt11char_traitsIcESaIcEEEEC2ES8_
FNDA:0,_ZN7testing7MatcherIRKNSt7__cxx1112basic_stringIcSt11char_traitsIcESaIcEEEEC2EPKc
FNDA:0,_ZN7testing7MatcherINSt7__cxx1112basic_stringIcSt11char_traitsIcESaIcEEEEC2ERKS6_
FNDA:0,_ZN7testing7MatcherINSt7__cxx1112basic_stringIcSt11char_traitsIcESaIcEEEEC2EPKc
FNDA:0,_ZN7testing7MatcherIRKSt17basic_string_viewIcSt11char_traitsIcEEEC2ERKNSt7__cxx1112basic_stringIcS3_SaIcEEE
FNDA:0,_ZN7testing7MatcherIRKSt17basic_string_viewIcSt11char_traitsIcEEEC2EPKc
FNDA:0,_ZN7testing7MatcherIRKSt17basic_string_viewIcSt11char_traitsIcEEEC2ES4_
FNDA:0,_ZN7testing7MatcherISt17basic_string_viewIcSt11char_traitsIcEEEC2ERKNSt7__cxx1112basic_stringIcS3_SaIcEEE
FNDA:0,_ZN7testing7MatcherISt17basic_string_viewIcSt11char_traitsIcEEEC2EPKc
FNDA:0,_ZN7testing7MatcherISt17basic_string_viewIcSt11char_traitsIcEEEC2ES4_
FNF:10
FNH:0
DA:46,0
DA:50,0
DA:51,0
DA:52,0
DA:56,0
DA:60,0
DA:65,0
DA:66,0
DA:67,0
DA:71,0
DA:72,0
DA:73,0
DA:77,0
DA:78,0
DA:79,0
DA:83,0
DA:87,0
DA:88,0
DA:89,0
DA:93,0
DA:94,0
DA:95,0
LF:22
LH:0
end_of_record
TN:
SF:/home/runner/work/TDDThreadSafeContainer/TDDThreadSafeContainer/tests/googletest/googletest/src/gtest-port.cc
FN:1003,1014,_ZN7testing8internal18FormatFileLocationB5cxx11EPKci
FN:1021,1029,_ZN7testing8internal37FormatCompilerIndependentFileLocationB5cxx11EPKci
FN:103,112,_ZN7testing8internal12_GLOBAL__N_117ReadProcFileFieldImEET_RKNSt7__cxx1112basic_stringIcSt11char_traitsIcESaIcEEEi
FN:1031,1040,_ZN7testing8internal8GTestLogC2ENS0_16GTestLogSeverityEPKci
FN:1043,1049,_ZN7testing8internal8GTestLogD2Ev
FN:1071,1153,_ZN7testing8internal14CapturedStreamC2Ei
FN:1157,1174,_ZN7testing8internal14CapturedStream17GetCapturedStringB5cxx11Ev
FN:116,120,_ZN7testing8internal14GetThreadCountEv
FN:1192,1199,_ZN7testing8internalL13CaptureStreamEiPKcPPNS0_14CapturedStreamE
FN:1202,1209,_ZN7testing8internalL17GetCapturedStreamEPPNS0_14CapturedStreamE
FN:1221,1223,_ZN7testing8internal13CaptureStdoutEv
FN:1226,1228,_ZN7testing8internal13CaptureStderrEv
FN:1231,1233,_ZN7testing8internal17GetCapturedStdoutB5cxx11Ev
FN:1236,1238,_ZN7testing8internal17GetCapturedStderrB5cxx11Ev
FN:1242,1245,_ZN7testing8internal11GetFileSizeEP8_IO_FILE
FN:1247,1268,_ZN7testing8internal14ReadEntireFileB5cxx11EP8_IO_FILE
FN:1274,1279,_ZN7testing8internal18GetInjectableArgvsB5cxx11Ev
FN:1281,1284,_ZN7testing8internal18SetInjectableArgvsEPKSt6vectorINSt7__cxx1112basic_stringIcSt11char_traitsIcESaIcEEESaIS7_EE
FN:1286,1289,_ZN7testing8internal18SetInjectableArgvsERKSt6vectorINSt7__cxx1112basic_stringIcSt11char_traitsIcESaIcEEESaIS7_EE
FN:1291,1294,_ZN7testing8internal20ClearInjectableArgvsEv
FN:1309,1319,_ZN7testing8internalL12FlagToEnvVarEPKc
FN:1324,1360,_ZN7testing8internal10ParseInt32ERKNS_7MessageEPKcPi
FN:1366,1375,_ZN7testing8internal16BoolFromGTestEnvEPKcb
FN:1380,1402,_ZN7testing8internal17Int32FromGTestEnvEPKci
FN:1412,1419,_ZN7testing8internal25OutputFlagAlsoCheckEnvVarB5cxx11Ev
FN:1423,1431,_ZN7testing8internal18StringFromGTestEnvEPKcS2_
FN:683,692,_ZN7testing8internal2RED2Ev
FN:695,700,_ZN7testing8internal2RE9FullMatchEPKcRKS1_
FN:704,709,_ZN7testing8internal2RE12PartialMatchEPKcRKS1_
FN:712,750,_ZN7testing8internal2RE4InitEPKc
FNDA:0,_ZN7testing8internal18FormatFileLocationB5cxx11EPKci
FNDA:0,_ZN7testing8internal37FormatCompilerIndependentFileLocationB5cxx11EPKci
FNDA:0,_ZN7testing8internal12_GLOBAL__N_117ReadProcFileFieldImEET_RKNSt7__cxx1112basic_stringIcSt11char_traitsIcESaIcEEEi
FNDA:0,_ZN7testing8internal8GTestLogC2ENS0_16GTestLogSeverityEPKci
FNDA:0,_ZN7testing8internal8GTestLogD2Ev
FNDA:0,_ZN7testing8internal14CapturedStreamC2Ei
FNDA:0,_ZN7testing8internal14CapturedStream17GetCapturedStringB5cxx11Ev
FNDA:0,_ZN7testing8internal14GetThreadCountEv
FNDA:0,_ZN7testing8internalL13CaptureStreamEiPKcPPNS0_14CapturedStreamE
FNDA:0,_ZN7testing8internalL17GetCapturedStreamEPPNS0_14CapturedStreamE
FNDA:0,_ZN7testing8internal13CaptureStdoutEv
FNDA:0,_ZN7testing8internal13CaptureStderrEv
FNDA:0,_ZN7testing8internal17GetCapturedStdoutB5cxx11Ev
FNDA:0,_ZN7testing8internal17GetCapturedStderrB5cxx11Ev
FNDA:0,_ZN7testing8internal11GetFileSizeEP8_IO_FILE
FNDA:0,_ZN7testing8internal14ReadEntireFileB5cxx11EP8_IO_FILE
FNDA:0,_ZN7testing8internal18GetInjectableArgvsB5cxx11Ev
FNDA:0,_ZN7testing8internal18SetInjectableArgvsEPKSt6vectorINSt7__cxx1112basic_stringIcSt11char_traitsIcESaIcEEESaIS7_EE
FNDA:0,_ZN7testing8internal18SetInjectableArgvsERKSt6vectorINSt7__cxx1112basic_stringIcSt11char_traitsIcESaIcEEESaIS7_EE
FNDA:0,_ZN7testing8internal20ClearInjectableArgvsEv
FNDA:22,_ZN7testing8internalL12FlagToEnvVarEPKc
FNDA:0,_ZN7testing8internal10ParseInt32ERKNS_7MessageEPKcPi
FNDA:13,_ZN7testing8internal16BoolFromGTestEnvEPKcb
FNDA:3,_ZN7testing8internal17Int32FromGTestEnvEPKci
FNDA:1,_ZN7testing8internal25OutputFlagAlsoCheckEnvVarB5cxx11Ev
FNDA:6,_ZN7testing8internal18StringFromGTestEnvEPKcS2_
FNDA:0,_ZN7testing8internal2RED2Ev
FNDA:0,_ZN7testing8internal2RE9FullMatchEPKcRKS1_
FNDA:0,_ZN7testing8internal2RE12PartialMatchEPKcRKS1_
FNDA:0,_ZN7testing8internal2RE4InitEPKc
FNF:30
FNH:5
DA:103,0
DA:104,0
DA:105,0
DA:106,0
DA:107,0
DA:109,0
DA:110,0
DA:111,0
DA:112,0
DA:116,0
DA:117,0
DA:118,0
DA:119,0
DA:120,0
DA:683,0
DA:684,0
DA:689,0
DA:690,0
DA:692,0
DA:695,0
DA:696,0
DA:698,0
DA:699,0
DA:704,0
DA:705,0
DA:707,0
DA:708,0
DA:712,0
DA:713,0
DA:723,0
DA:728,0
DA:729,0
DA:731,0
DA:732,0
DA:741,0
DA:742,0
DA:743,0
DA:745,0
DA:746,0
DA:747,0
DA:749,0
DA:750,0
DA:1003,0
DA:1004,0
DA:1006,0
DA:1007,0
DA:1012,0
DA:1014,0
DA:1021,0
DA:1023,0
DA:1025,0
DA:1026,0
DA:1028,0
DA:1029,0
DA:1031,0
DA:1032,0
DA:1033,0
DA:1037,0
DA:1038,0
DA:1039,0
DA:1040,0
DA:1043,0
DA:1044,0
DA:1045,0
DA:1046,0
DA:1047,0
DA:1049,0
DA:1071,0
DA:1089,0
DA:1132,0
DA:1134,0
DA:1142,0
DA:1143,0
DA:1144,0
DA:1146,0
DA:1148,0
DA:1150,0
DA:1151,0
DA:1152,0
DA:1153,0
DA:1155,0
DA:1157,0
DA:1158,0
DA:1160,0
DA:1161,0
DA:1162,0
DA:1163,0
DA:1166,0
DA:1167,0
DA:1168,0
DA:1169,0
DA:1171,0
DA:1172,0
DA:1173,0
DA:1174,0
DA:1192,0
DA:1194,0
DA:1195,0
DA:1196,0
DA:1198,0
DA:1199,0
DA:1202,0
DA:1203,0
DA:1205,0
DA:1206,0
DA:1208,0
DA:1221,0
DA:1222,0
DA:1223,0
DA:1226,0
DA:1227,0
DA:1228,0
DA:1231,0
DA:1232,0
DA:1236,0
DA:1237,0
DA:1242,0
DA:1243,0
DA:1244,0
DA:1247,0
DA:1248,0
DA:1249,0
DA:1251,0
DA:1252,0
DA:1254,0
DA:1258,0
DA:1259,0
DA:1260,0
DA:1261,0
DA:1262,0
DA:1264,0
DA:1265,0
DA:1267,0
DA:1274,0
DA:1275,0
DA:1276,0
DA:1278,0
DA:1281,0
DA:1282,0
DA:1283,0
DA:1284,0
DA:1286,0
DA:1287,0
DA:1288,0
DA:1289,0
DA:1291,0
DA:1292,0
DA:1293,0
DA:1294,0
DA:1309,22
DA:1310,22
DA:1311,44
DA:1313,22
DA:1314,464
DA:1315,442
DA:1318,44
DA:1319,22
DA:1324,0
DA:1326,0
DA:1327,0
DA:1330,0
DA:1332,0
DA:1333,0
DA:1334,0
DA:1335,0
DA:1336,0
DA:1337,0
DA:1338,0
DA:1339,0
DA:1342,0
DA:1343,0
DA:1346,0
DA:1349,0
DA:1350,0
DA:1351,0
DA:1352,0
DA:1353,0
DA:1354,0
DA:1355,0
DA:1356,0
DA:1358,0
DA:1359,0
DA:1366,13
DA:1370,13
DA:1371,13
DA:1372,13
DA:1373,0
DA:1375,13
DA:1380,3
DA:1384,3
DA:1385,3
DA:1386,3
DA:1391,0
DA:1392,0
DA:1394,0
DA:1395,0
DA:1396,0
DA:1400,0
DA:1402,3
DA:1412,1
DA:1413,1
DA:1414,1
DA:1415,1
DA:1416,0
DA:1418,1
DA:1419,0
DA:1423,6
DA:1427,6
DA:1428,6
DA:1429,12
DA:1431,6
LF:211
LH:28
end_of_record
TN:
SF:/home/runner/work/TDDThreadSafeContainer/TDDThreadSafeContainer/tests/googletest/googletest/src/gtest-printers.cc
FN:130,133,_ZN7testing8internal20PrintBytesInObjectToEPKhmPSo
FN:151,196,_ZN7testing8internalL20PrintAsCharLiteralToIDiEENS0_10CharFormatET_PSo
FN:151,196,_ZN7testing8internalL20PrintAsCharLiteralToIaEENS0_10CharFormatET_PSo
FN:151,196,_ZN7testing8internalL20PrintAsCharLiteralToIhEENS0_10CharFormatET_PSo
FN:151,196,_ZN7testing8internalL20PrintAsCharLiteralToIwEENS0_10CharFormatET_PSo
FN:200,211,_ZN7testing8internalL22PrintAsStringLiteralToEDiPSo
FN:213,213,_ZN7testing8internalL18GetCharWidthPrefixEc
FN:220,220,_ZN7testing8internalL18GetCharWidthPrefixEDu
FN:223,223,_ZN7testing8internalL18GetCharWidthPrefixEDs
FN:225,225,_ZN7testing8internalL18GetCharWidthPrefixEDi
FN:227,227,_ZN7testing8internalL18GetCharWidthPrefixEw
FN:231,233,_ZN7testing8internalL22PrintAsStringLiteralToEcPSo
FN:236,238,_ZN7testing8internalL22PrintAsStringLiteralToEDuPSo
FN:241,243,_ZN7testing8internalL22PrintAsStringLiteralToEDsPSo
FN:245,247,_ZN7testing8internalL22PrintAsStringLiteralToEwPSo
FN:253,274,_ZN7testing8internal18PrintCharAndCodeToIaEEvT_PSo
FN:253,274,_ZN7testing8internal18PrintCharAndCodeToIhEEvT_PSo
FN:253,274,_ZN7testing8internal18PrintCharAndCodeToIwEEvT_PSo
FN:276,276,_ZN7testing8internal7PrintToEhPSo
FN:277,277,_ZN7testing8internal7PrintToEaPSo
FN:281,281,_ZN7testing8internal7PrintToEwPSo
FN:284,287,_ZN7testing8internal7PrintToEDiPSo
FN:291,323,_ZN7testing8internal7PrintToEoPSo
FN:324,331,_ZN7testing8internal7PrintToEnPSo
FN:342,363,_ZN7testing8internalL20PrintCharsAsStringToIDiEENS0_10CharFormatEPKT_mPSo
FN:342,363,_ZN7testing8internalL20PrintCharsAsStringToIDsEENS0_10CharFormatEPKT_mPSo
FN:342,363,_ZN7testing8internalL20PrintCharsAsStringToIDuEENS0_10CharFormatEPKT_mPSo
FN:342,363,_ZN7testing8internalL20PrintCharsAsStringToIcEENS0_10CharFormatEPKT_mPSo
FN:342,363,_ZN7testing8internalL20PrintCharsAsStringToIwEENS0_10CharFormatEPKT_mPSo
FN:371,391,_ZN7testing8internalL23UniversalPrintCharArrayIDiEEvPKT_mPSo
FN:371,391,_ZN7testing8internalL23UniversalPrintCharArrayIDsEEvPKT_mPSo
FN:371,391,_ZN7testing8internalL23UniversalPrintCharArrayIDuEEvPKT_mPSo
FN:371,391,_ZN7testing8internalL23UniversalPrintCharArrayIcEEvPKT_mPSo
FN:371,391,_ZN7testing8internalL23UniversalPrintCharArrayIwEEvPKT_mPSo
FN:394,396,_ZN7testing8internal19UniversalPrintArrayEPKcmPSo
FN:401,403,_ZN7testing8internal19UniversalPrintArrayEPKDumPSo
FN:408,410,_ZN7testing8internal19UniversalPrintArrayEPKDsmPSo
FN:414,416,_ZN7testing8internal19UniversalPrintArrayEPKDimPSo
FN:420,422,_ZN7testing8internal19UniversalPrintArrayEPKwmPSo
FN:428,435,_ZN7testing8internal12_GLOBAL__N_114PrintCStringToIDiEEvPKT_PSo
FN:428,435,_ZN7testing8internal12_GLOBAL__N_114PrintCStringToIDsEEvPKT_PSo
FN:428,435,_ZN7testing8internal12_GLOBAL__N_114PrintCStringToIDuEEvPKT_PSo
FN:428,435,_ZN7testing8internal12_GLOBAL__N_114PrintCStringToIcEEvPKT_PSo
FN:428,435,_ZN7testing8internal12_GLOBAL__N_114PrintCStringToIwEEvPKT_PSo
FN:439,439,_ZN7testing8internal7PrintToEPKcPSo
FN:442,442,_ZN7testing8internal7PrintToEPKDuPSo
FN:445,445,_ZN7testing8internal7PrintToEPKDsPSo
FN:447,447,_ZN7testing8internal7PrintToEPKDiPSo
FN:457,457,_ZN7testing8internal7PrintToEPKwPSo
FN:462,479,_ZN7testing8internal12_GLOBAL__N_131ContainsUnprintableControlCodesEPKcm
FN:483,514,_ZN7testing8internal12_GLOBAL__N_111IsValidUTF8EPKcm
FN:516,521,_ZN7testing8internal12_GLOBAL__N_122ConditionalPrintAsTextEPKcmPSo
FN:525,531,_ZN7testing8internal13PrintStringToERKNSt7__cxx1112basic_stringIcSt11char_traitsIcESaIcEEEPSo
FN:534,536,_ZN7testing8internal15PrintU8StringToERKNSt7__cxx1112basic_stringIDuSt11char_traitsIDuESaIDuEEEPSo
FN:539,541,_ZN7testing8internal16PrintU16StringToERKNSt7__cxx1112basic_stringIDsSt11char_traitsIDsESaIDsEEEPSo
FN:543,545,_ZN7testing8internal16PrintU32StringToERKNSt7__cxx1112basic_stringIDiSt11char_traitsIDiESaIDiEEEPSo
FN:548,550,_ZN7testing8internal17PrintWideStringToERKNSt7__cxx1112basic_stringIwSt11char_traitsIwESaIwEEEPSo
FN:70,86,_ZN7testing12_GLOBAL__N_126PrintByteSegmentInObjectToEPKhmmPSo
FN:89,109,_ZN7testing12_GLOBAL__N_124PrintBytesInObjectToImplEPKhmPSo
FNDA:0,_ZN7testing8internal20PrintBytesInObjectToEPKhmPSo
FNDA:0,_ZN7testing8internalL20PrintAsCharLiteralToIDiEENS0_10CharFormatET_PSo
FNDA:0,_ZN7testing8internalL20PrintAsCharLiteralToIaEENS0_10CharFormatET_PSo
FNDA:0,_ZN7testing8internalL20PrintAsCharLiteralToIhEENS0_10CharFormatET_PSo
FNDA:0,_ZN7testing8internalL20PrintAsCharLiteralToIwEENS0_10CharFormatET_PSo
FNDA:0,_ZN7testing8internalL22PrintAsStringLiteralToEDiPSo
FNDA:0,_ZN7testing8internalL18GetCharWidthPrefixEc
FNDA:0,_ZN7testing8internalL18GetCharWidthPrefixEDu
FNDA:0,_ZN7testing8internalL18GetCharWidthPrefixEDs
FNDA:0,_ZN7testing8internalL18GetCharWidthPrefixEDi
FNDA:0,_ZN7testing8internalL18GetCharWidthPrefixEw
FNDA:0,_ZN7testing8internalL22PrintAsStringLiteralToEcPSo
FNDA:0,_ZN7testing8internalL22PrintAsStringLiteralToEDuPSo
FNDA:0,_ZN7testing8internalL22PrintAsStringLiteralToEDsPSo
FNDA:0,_ZN7testing8internalL22PrintAsStringLiteralToEwPSo
FNDA:0,_ZN7testing8internal18PrintCharAndCodeToIaEEvT_PSo
FNDA:0,_ZN7testing8internal18PrintCharAndCodeToIhEEvT_PSo
FNDA:0,_ZN7testing8internal18PrintCharAndCodeToIwEEvT_PSo
FNDA:0,_ZN7testing8internal7PrintToEhPSo
FNDA:0,_ZN7testing8internal7PrintToEaPSo
FNDA:0,_ZN7testing8internal7PrintToEwPSo
FNDA:0,_ZN7testing8internal7PrintToEDiPSo
FNDA:0,_ZN7testing8internal7PrintToEoPSo
FNDA:0,_ZN7testing8internal7PrintToEnPSo
FNDA:0,_ZN7testing8internalL20PrintCharsAsStringToIDiEENS0_10CharFormatEPKT_mPSo
FNDA:0,_ZN7testing8internalL20PrintCharsAsStringToIDsEENS0_10CharFormatEPKT_mPSo
FNDA:0,_ZN7testing8internalL20PrintCharsAsStringToIDuEENS0_10CharFormatEPKT_mPSo
FNDA:0,_ZN7testing8internalL20PrintCharsAsStringToIcEENS0_10CharFormatEPKT_mPSo
FNDA:0,_ZN7testing8internalL20PrintCharsAsStringToIwEENS0_10CharFormatEPKT_mPSo
FNDA:0,_ZN7testing8internalL23UniversalPrintCharArrayIDiEEvPKT_mPSo
FNDA:0,_ZN7testing8internalL23UniversalPrintCharArrayIDsEEvPKT_mPSo
FNDA:0,_ZN7testing8internalL23UniversalPrintCharArrayIDuEEvPKT_mPSo
FNDA:0,_ZN7testing8internalL23UniversalPrintCharArrayIcEEvPKT_mPSo
FNDA:0,_ZN7testing8internalL23UniversalPrintCharArrayIwEEvPKT_mPSo
FNDA:0,_ZN7testing8internal19UniversalPrintArrayEPKcmPSo
FNDA:0,_ZN7testing8internal19UniversalPrintArrayEPKDumPSo
FNDA:0,_ZN7testing8internal19UniversalPrintArrayEPKDsmPSo
FNDA:0,_ZN7testing8internal19UniversalPrintArrayEPKDimPSo
FNDA:0,_ZN7testing8internal19UniversalPrintArrayEPKwmPSo
FNDA:0,_ZN7testing8internal12_GLOBAL__N_114PrintCStringToIDiEEvPKT_PSo
FNDA:0,_ZN7testing8internal12_GLOBAL__N_114PrintCStringToIDsEEvPKT_PSo
FNDA:0,_ZN7testing8internal12_GLOBAL__N_114PrintCStringToIDuEEvPKT_PSo
FNDA:0,_ZN7testing8internal12_GLOBAL__N_114PrintCStringToIcEEvPKT_PSo
FNDA:0,_ZN7testing8internal12_GLOBAL__N_114PrintCStringToIwEEvPKT_PSo
FNDA:0,_ZN7testing8internal7PrintToEPKcPSo
FNDA:0,_ZN7testing8internal7PrintToEPKDuPSo
FNDA:0,_ZN7testing8internal7PrintToEPKDsPSo
FNDA:0,_ZN7testing8internal7PrintToEPKDiPSo
FNDA:0,_ZN7testing8internal7PrintToEPKwPSo
FNDA:0,_ZN7testing8internal12_GLOBAL__N_131ContainsUnprintableControlCodesEPKcm
FNDA:0,_ZN7testing8internal12_GLOBAL__N_111IsValidUTF8EPKcm
FNDA:0,_ZN7testing8internal12_GLOBAL__N_122ConditionalPrintAsTextEPKcmPSo
FNDA:0,_ZN7testing8internal13PrintStringToERKNSt7__cxx1112basic_stringIcSt11char_traitsIcESaIcEEEPSo
FNDA:0,_ZN7testing8internal15PrintU8StringToERKNSt7__cxx1112basic_stringIDuSt11char_traitsIDuESaIDuEEEPSo
FNDA:0,_ZN7testing8internal16PrintU16StringToERKNSt7__cxx1112basic_stringIDsSt11char_traitsIDsESaIDsEEEPSo
FNDA:0,_ZN7testing8internal16PrintU32StringToERKNSt7__cxx1112basic_stringIDiSt11char_traitsIDiESaIDiEEEPSo
FNDA:0,_ZN7testing8internal17PrintWideStringToERKNSt7__cxx1112basic_stringIwSt11char_traitsIwESaIwEEEPSo
FNDA:0,_ZN7testing12_GLOBAL__N_126PrintByteSegmentInObjectToEPKhmmPSo
FNDA:0,_ZN7testing12_GLOBAL__N_124PrintBytesInObjectToImplEPKhmPSo
FNF:59
FNH:0
DA:70,0
DA:72,0
DA:73,0
DA:74,0
DA:75,0
DA:78,0
DA:79,0
DA:81,0
DA:83,0
DA:84,0
DA:86,0
DA:89,0
DA:92,0
DA:94,0
DA:95,0
DA:99,0
DA:100,0
DA:102,0
DA:103,0
DA:105,0
DA:106,0
DA:108,0
DA:109,0
DA:116,0
DA:118,0
DA:130,0
DA:132,0
DA:133,0
DA:145,0
DA:151,0
DA:152,0
DA:153,0
DA:154,0
DA:155,0
DA:157,0
DA:158,0
DA:160,0
DA:161,0
DA:163,0
DA:164,0
DA:166,0
DA:167,0
DA:169,0
DA:170,0
DA:172,0
DA:173,0
DA:175,0
DA:176,0
DA:178,0
DA:179,0
DA:181,0
DA:182,0
DA:184,0
DA:185,0
DA:186,0
DA:189,0
DA:190,0
DA:191,0
DA:192,0
DA:200,0
DA:201,0
DA:202,0
DA:203,0
DA:205,0
DA:206,0
DA:208,0
DA:209,0
DA:213,0
DA:215,0
DA:217,0
DA:220,0
DA:223,0
DA:225,0
DA:227,0
DA:231,0
DA:232,0
DA:236,0
DA:237,0
DA:241,0
DA:242,0
DA:245,0
DA:246,0
DA:253,0
DA:255,0
DA:256,0
DA:257,0
DA:262,0
DA:263,0
DA:268,0
DA:271,0
DA:273,0
DA:276,0
DA:277,0
DA:281,0
DA:284,0
DA:285,0
DA:286,0
DA:287,0
DA:291,0
DA:292,0
DA:293,0
DA:294,0
DA:298,0
DA:299,0
DA:304,0
DA:305,0
DA:307,0
DA:308,0
DA:309,0
DA:310,0
DA:316,0
DA:317,0
DA:319,0
DA:320,0
DA:322,0
DA:324,0
DA:325,0
DA:326,0
DA:327,0
DA:328,0
DA:330,0
DA:331,0
DA:342,0
DA:343,0
DA:344,0
DA:345,0
DA:346,0
DA:347,0
DA:348,0
DA:349,0
DA:353,0
DA:355,0
DA:357,0
DA:358,0
DA:361,0
DA:362,0
DA:371,0
DA:380,0
DA:381,0
DA:382,0
DA:389,0
DA:390,0
DA:394,0
DA:395,0
DA:396,0
DA:401,0
DA:402,0
DA:403,0
DA:408,0
DA:409,0
DA:410,0
DA:414,0
DA:415,0
DA:416,0
DA:420,0
DA:421,0
DA:422,0
DA:428,0
DA:429,0
DA:430,0
DA:432,0
DA:433,0
DA:435,0
DA:439,0
DA:442,0
DA:445,0
DA:447,0
DA:457,0
DA:462,0
DA:463,0
DA:465,0
DA:466,0
DA:467,0
DA:468,0
DA:481,0
DA:483,0
DA:484,0
DA:486,0
DA:487,0
DA:489,0
DA:490,0
DA:492,0
DA:494,0
DA:496,0
DA:497,0
DA:499,0
DA:500,0
DA:502,0
DA:503,0
DA:504,0
DA:506,0
DA:507,0
DA:516,0
DA:517,0
DA:518,0
DA:519,0
DA:521,0
DA:525,0
DA:526,0
DA:527,0
DA:528,0
DA:531,0
DA:534,0
DA:535,0
DA:536,0
DA:539,0
DA:540,0
DA:541,0
DA:543,0
DA:544,0
DA:545,0
DA:548,0
DA:549,0
DA:550,0
LF:214
LH:0
end_of_record
TN:
SF:/home/runner/work/TDDThreadSafeContainer/TDDThreadSafeContainer/tests/googletest/googletest/src/gtest-test-part.cc
FN:45,48,_ZN7testing14TestPartResult14ExtractSummaryB5cxx11EPKc
FN:51,62,_ZN7testinglsERSoRKNS_14TestPartResultE
FN:65,67,_ZN7testing19TestPartResultArray6AppendERKNS_14TestPartResultE
FN:70,77,_ZNK7testing19TestPartResultArray17GetTestPartResultEi
FN:80,82,_ZNK7testing19TestPartResultArray4sizeEv
FN:86,91,_ZN7testing8internal24HasNewFatalFailureHelperC2Ev
FN:93,96,_ZN7testing8internal24HasNewFatalFailureHelperD0Ev
FN:93,96,_ZN7testing8internal24HasNewFatalFailureHelperD2Ev
FN:98,102,_ZN7testing8internal24HasNewFatalFailureHelper20ReportTestPartResultERKNS_14TestPartResultE
FNDA:0,_ZN7testing14TestPartResult14ExtractSummaryB5cxx11EPKc
FNDA:0,_ZN7testinglsERSoRKNS_14TestPartResultE
FNDA:0,_ZN7testing19TestPartResultArray6AppendERKNS_14TestPartResultE
FNDA:0,_ZNK7testing19TestPartResultArray17GetTestPartResultEi
FNDA:0,_ZNK7testing19TestPartResultArray4sizeEv
FNDA:0,_ZN7testing8internal24HasNewFatalFailureHelperC2Ev
FNDA:0,_ZN7testing8internal24HasNewFatalFailureHelperD0Ev
FNDA:0,_ZN7testing8internal24HasNewFatalFailureHelperD2Ev
FNDA:0,_ZN7testing8internal24HasNewFatalFailureHelper20ReportTestPartResultERKNS_14TestPartResultE
FNF:9
FNH:0
DA:45,0
DA:46,0
DA:47,0
DA:51,0
DA:52,0
DA:55,0
DA:56,0
DA:57,0
DA:58,0
DA:61,0
DA:65,0
DA:66,0
DA:67,0
DA:70,0
DA:71,0
DA:72,0
DA:73,0
DA:76,0
DA:80,0
DA:81,0
DA:86,0
DA:87,0
DA:88,0
DA:89,0
DA:90,0
DA:91,0
DA:93,0
DA:94,0
DA:96,0
DA:98,0
DA:100,0
DA:101,0
DA:102,0
LF:33
LH:0
end_of_record
TN:
SF:/home/runner/work/TDDThreadSafeContainer/TDDThreadSafeContainer/tests/googletest/googletest/src/gtest-typed-test.cc
FN:48,55,_ZN7testing8internalL18SplitIntoTestNamesEPKc
FN:60,105,_ZN7testing8internal20TypedTestSuitePState25VerifyRegisteredTestNamesEPKcS3_iS3_
FNDA:0,_ZN7testing8internalL18SplitIntoTestNamesEPKc
FNDA:0,_ZN7testing8internal20TypedTestSuitePState25VerifyRegisteredTestNamesEPKcS3_iS3_
FNF:2
FNH:0
DA:43,0
DA:44,0
DA:48,0
DA:49,0
DA:50,0
DA:51,0
DA:52,0
DA:54,0
DA:55,0
DA:60,0
DA:63,0
DA:65,0
DA:66,0
DA:68,0
DA:70,0
DA:72,0
DA:73,0
DA:74,0
DA:75,0
DA:76,0
DA:77,0
DA:78,0
DA:81,0
DA:82,0
DA:84,0
DA:85,0
DA:89,0
DA:90,0
DA:91,0
DA:92,0
DA:96,0
DA:97,0
DA:98,0
DA:100,0
DA:101,0
DA:104,0
DA:105,0
LF:37
LH:0
end_of_record
TN:
SF:/home/runner/work/TDDThreadSafeContainer/TDDThreadSafeContainer/tests/googletest/googletest/src/gtest.cc
FN:1008,1042,_ZN7testing8internalL13HasOneFailureEPKcS2_S2_RKNS_19TestPartResultArrayENS_14TestPartResult4TypeERKNSt7__cxx1112basic_stringIcSt11char_traitsIcESaIcEEE
FN:1047,1050,_ZN7testing8internal20SingleFailureCheckerC2EPKNS_19TestPartResultArrayENS_14TestPartResult4TypeERKNSt7__cxx1112basic_stringIcSt11char_traitsIcESaIcEEE
FN:1056,1058,_ZN7testing8internal20SingleFailureCheckerD2Ev
FN:1060,1062,_ZN7testing8internal35DefaultGlobalTestPartResultReporterC2EPNS0_12UnitTestImplE
FN:1064,1068,_ZN7testing8internal35DefaultGlobalTestPartResultReporter20ReportTestPartResultERKNS_14TestPartResultE
FN:1070,1072,_ZN7testing8internal38DefaultPerThreadTestPartResultReporterC2EPNS0_12UnitTestImplE
FN:1074,1077,_ZN7testing8internal38DefaultPerThreadTestPartResultReporter20ReportTestPartResultERKNS_14TestPartResultE
FN:1081,1084,_ZN7testing8internal12UnitTestImpl31GetGlobalTestPartResultReporterEv
FN:1087,1091,_ZN7testing8internal12UnitTestImpl31SetGlobalTestPartResultReporterEPNS_31TestPartResultReporterInterfaceE
FN:1095,1097,_ZN7testing8internal12UnitTestImpl41GetTestPartResultReporterForCurrentThreadEv
FN:1100,1103,_ZN7testing8internal12UnitTestImpl41SetTestPartResultReporterForCurrentThreadEPNS_31TestPartResultReporterInterfaceE
FN:1106,1108,_ZNK7testing8internal12UnitTestImpl27successful_test_suite_countEv
FN:1111,1113,_ZNK7testing8internal12UnitTestImpl23failed_test_suite_countEv
FN:1116,1118,_ZNK7testing8internal12UnitTestImpl22total_test_suite_countEv
FN:1122,1124,_ZNK7testing8internal12UnitTestImpl23test_suite_to_run_countEv
FN:1127,1129,_ZNK7testing8internal12UnitTestImpl21successful_test_countEv
FN:1132,1134,_ZNK7testing8internal12UnitTestImpl18skipped_test_countEv
FN:1137,1139,_ZNK7testing8internal12UnitTestImpl17failed_test_countEv
FN:1142,1145,_ZNK7testing8internal12UnitTestImpl30reportable_disabled_test_countEv
FN:1148,1150,_ZNK7testing8internal12UnitTestImpl19disabled_test_countEv
FN:1153,1155,_ZNK7testing8internal12UnitTestImpl21reportable_test_countEv
FN:1158,1160,_ZNK7testing8internal12UnitTestImpl16total_test_countEv
FN:1163,1165,_ZNK7testing8internal12UnitTestImpl17test_to_run_countEv
FN:1177,1183,_ZN7testing8internal12UnitTestImpl28CurrentOsStackTraceExceptTopB5cxx11Ei
FN:1211,1216,_ZN7testing8internal15GetTimeInMillisEv
FN:1261,1267,_ZN7testing8internal6String13CStringEqualsEPKcS3_
FN:1273,1284,_ZN7testing8internalL24StreamWideCharsToMessageEPKwmPNS_7MessageE
FN:1288,1303,_ZN7testing8internal11SplitStringERKNSt7__cxx1112basic_stringIcSt11char_traitsIcESaIcEEEcPSt6vectorIS6_SaIS6_EE
FN:1312,1316,_ZN7testing7MessageC2Ev
FN:1320,1322,_ZN7testing7MessagelsEPKw
FN:1323,1325,_ZN7testing7MessagelsEPw
FN:1330,1333,_ZN7testing7MessagelsERKNSt7__cxx1112basic_stringIwSt11char_traitsIwESaIwEEE
FN:1338,1340,_ZNK7testing7Message9GetStringB5cxx11Ev
FN:1345,1400,_ZN7testing8internal13edit_distance21CalculateOptimalEditsERKSt6vectorImSaImEES6_
FN:1407,1412,_ZN7testing8internal13edit_distance12_GLOBAL__N_115InternalStrings5GetIdERKNSt7__cxx1112basic_stringIcSt11char_traitsIcESaIcEEE
FN:1421,1435,_ZN7testing8internal13edit_distance21CalculateOptimalEditsERKSt6vectorINSt7__cxx1112basic_stringIcSt11char_traitsIcESaIcEEESaIS8_EESC_
FN:1452,1468,_ZN7testing8internal13edit_distance12_GLOBAL__N_14Hunk8PushLineEcPKc
FN:1470,1478,_ZN7testing8internal13edit_distance12_GLOBAL__N_14Hunk7PrintToEPSo
FN:1483,1486,_ZN7testing8internal13edit_distance12_GLOBAL__N_14Hunk10FlushEditsEv
FN:1492,1504,_ZNK7testing8internal13edit_distance12_GLOBAL__N_14Hunk11PrintHeaderEPSo
FN:1520,1581,_ZN7testing8internal13edit_distance17CreateUnifiedDiffERKSt6vectorINSt7__cxx1112basic_stringIcSt11char_traitsIcESaIcEEESaIS8_EESC_m
FN:1590,1611,_ZN7testing8internal12_GLOBAL__N_118SplitEscapedStringERKNSt7__cxx1112basic_stringIcSt11char_traitsIcESaIcEEE
FN:1630,1659,_ZN7testing8internal9EqFailureEPKcS2_RKNSt7__cxx1112basic_stringIcSt11char_traitsIcESaIcEEESA_b
FN:1662,1672,_ZN7testing8internal30GetBoolAssertionFailureMessageB5cxx11ERKNS_15AssertionResultEPKcS5_S5_
FN:1678,1727,_ZN7testing8internal20DoubleNearPredFormatEPKcS2_S2_ddd
FN:1731,1760,_ZN7testing8internal15FloatingPointLEIdEENS_15AssertionResultEPKcS4_T_S5_
FN:1731,1760,_ZN7testing8internal15FloatingPointLEIfEENS_15AssertionResultEPKcS4_T_S5_
FN:1766,1769,_ZN7testing7FloatLEEPKcS1_ff
FN:1773,1776,_ZN7testing8DoubleLEEPKcS1_dd
FN:1781,1790,_ZN7testing8internal14CmpHelperSTREQEPKcS2_S2_S2_
FN:1793,1802,_ZN7testing8internal18CmpHelperSTRCASEEQEPKcS2_S2_S2_
FN:1805,1815,_ZN7testing8internal14CmpHelperSTRNEEPKcS2_S2_S2_
FN:1818,1828,_ZN7testing8internal18CmpHelperSTRCASENEEPKcS2_S2_S2_
FN:1863,1879,_ZN7testing12_GLOBAL__N_115IsSubstringImplINSt7__cxx1112basic_stringIcSt11char_traitsIcESaIcEEEEENS_15AssertionResultEbPKcSA_RKT_SD_
FN:1863,1879,_ZN7testing12_GLOBAL__N_115IsSubstringImplINSt7__cxx1112basic_stringIwSt11char_traitsIwESaIwEEEEENS_15AssertionResultEbPKcSA_RKT_SD_
FN:1863,1879,_ZN7testing12_GLOBAL__N_115IsSubstringImplIPKcEENS_15AssertionResultEbS3_S3_RKT_S7_
FN:1863,1879,_ZN7testing12_GLOBAL__N_115IsSubstringImplIPKwEENS_15AssertionResultEbPKcS6_RKT_S9_
FN:1887,1890,_ZN7testing11IsSubstringEPKcS1_S1_S1_
FN:1892,1895,_ZN7testing11IsSubstringEPKcS1_PKwS3_
FN:1897,1901,_ZN7testing14IsNotSubstringEPKcS1_S1_S1_
FN:1903,1907,_ZN7testing14IsNotSubstringEPKcS1_PKwS3_
FN:1909,1913,_ZN7testing11IsSubstringEPKcS1_RKNSt7__cxx1112basic_stringIcSt11char_traitsIcESaIcEEES9_
FN:1915,1920,_ZN7testing14IsNotSubstringEPKcS1_RKNSt7__cxx1112basic_stringIcSt11char_traitsIcESaIcEEES9_
FN:1923,1927,_ZN7testing11IsSubstringEPKcS1_RKNSt7__cxx1112basic_stringIwSt11char_traitsIwESaIwEEES9_
FN:1929,1934,_ZN7testing14IsNotSubstringEPKcS1_RKNSt7__cxx1112basic_stringIwSt11char_traitsIwESaIwEEES9_
FN:2041,2067,_ZN7testing8internal15CodePointToUtf8B5cxx11Ej
FN:2108,2128,_ZN7testing8internal16WideStringToUtf8B5cxx11EPKwi
FN:2132,2136,_ZN7testing8internal6String15ShowWideCStringB5cxx11EPKw
FN:2144,2150,_ZN7testing8internal6String17WideCStringEqualsEPKwS3_
FN:2153,2162,_ZN7testing8internal14CmpHelperSTREQEPKcS2_PKwS4_
FN:2165,2175,_ZN7testing8internal14CmpHelperSTRNEEPKcS2_PKwS4_
FN:2183,2187,_ZN7testing8internal6String28CaseInsensitiveCStringEqualsEPKcS3_
FN:219,231,_ZN7testing8internalL18OpenFileForWritingERKNSt7__cxx1112basic_stringIcSt11char_traitsIcESaIcEEE
FN:2201,2221,_ZN7testing8internal6String32CaseInsensitiveWideCStringEqualsEPKwS3_
FN:2225,2232,_ZN7testing8internal6String23EndsWithCaseInsensitiveERKNSt7__cxx1112basic_stringIcSt11char_traitsIcESaIcEEES9_
FN:2235,2237,_ZN7testing8internal6String15FormatIntWidth2B5cxx11Ei
FN:2240,2244,_ZN7testing8internal6String15FormatIntWidthNB5cxx11Eii
FN:2247,2251,_ZN7testing8internal6String15FormatHexUInt32B5cxx11Ej
FN:2254,2256,_ZN7testing8internal6String12FormatHexIntB5cxx11Ei
FN:2259,2264,_ZN7testing8internal6String10FormatByteB5cxx11Eh
FN:2268,2284,_ZN7testing8internal20StringStreamToStringEPNSt7__cxx1118basic_stringstreamIcSt11char_traitsIcESaIcEEE
FN:2287,2298,_ZN7testing8internal17AppendUserMessageERKNSt7__cxx1112basic_stringIcSt11char_traitsIcESaIcEEERKNS_7MessageE
FN:2305,2306,_ZN7testing10TestResultC2Ev
FN:2309,2309,_ZN7testing10TestResultD2Ev
FN:2314,2317,_ZNK7testing10TestResult17GetTestPartResultEi
FN:2322,2325,_ZNK7testing10TestResult15GetTestPropertyEi
FN:2328,2328,_ZN7testing10TestResult20ClearTestPartResultsEv
FN:2331,2333,_ZN7testing10TestResult17AddTestPartResultERKNS_14TestPartResultE
FN:2338,2352,_ZN7testing10TestResult14RecordPropertyERKNSt7__cxx1112basic_stringIcSt11char_traitsIcESaIcEEERKNS_12TestPropertyE
FN:2382,2395,_ZN7testingL31GetReservedAttributesForElementERKNSt7__cxx1112basic_stringIcSt11char_traitsIcESaIcEEE
FN:2400,2413,_ZN7testingL37GetReservedOutputAttributesForElementERKNSt7__cxx1112basic_stringIcSt11char_traitsIcESaIcEEE
FN:2416,2428,_ZN7testingL14FormatWordListERKSt6vectorINSt7__cxx1112basic_stringIcSt11char_traitsIcESaIcEEESaIS6_EE
FN:2430,2441,_ZN7testingL24ValidateTestPropertyNameERKNSt7__cxx1112basic_stringIcSt11char_traitsIcESaIcEEERKSt6vectorIS5_SaIS5_EE
FN:2445,2449,_ZN7testing10TestResult20ValidateTestPropertyERKNSt7__cxx1112basic_stringIcSt11char_traitsIcESaIcEEERKNS_12TestPropertyE
FN:2452,2457,_ZN7testing10TestResult5ClearEv
FN:2460,2462,_ZN7testingL15TestPartSkippedERKNS_14TestPartResultE
FN:2465,2467,_ZNK7testing10TestResult7SkippedEv
FN:2470,2475,_ZNK7testing10TestResult6FailedEv
FN:2478,2480,_ZN7testingL21TestPartFatallyFailedERKNS_14TestPartResultE
FN:2483,2485,_ZNK7testing10TestResult15HasFatalFailureEv
FN:2488,2490,_ZN7testingL24TestPartNonfatallyFailedERKNS_14TestPartResultE
FN:249,256,_ZN7testingL18GetDefaultFailFastEv
FN:2493,2495,_ZNK7testing10TestResult18HasNonfatalFailureEv
FN:2499,2501,_ZNK7testing10TestResult16total_part_countEv
FN:2504,2506,_ZNK7testing10TestResult19test_property_countEv
FN:2513,2513,_ZN7testing4TestC2Ev
FN:2518,2518,_ZN7testing4TestD0Ev
FN:2518,2518,_ZN7testing4TestD2Ev
FN:2523,2523,_ZN7testing4Test5SetUpEv
FN:2528,2528,_ZN7testing4Test8TearDownEv
FN:2531,2533,_ZN7testing4Test14RecordPropertyERKNSt7__cxx1112basic_stringIcSt11char_traitsIcESaIcEEES8_
FN:2537,2547,_ZN7testing8internal30ReportFailureInUnknownLocationENS_14TestPartResult4TypeERKNSt7__cxx1112basic_stringIcSt11char_traitsIcESaIcEEE
FN:2556,2615,_ZN7testing4Test19HasSameFixtureClassEv
FN:2622,2633,_ZN7testing8internalL25FormatCxxExceptionMessageEPKcS2_
FN:2638,2640,_ZN7testing8internal26GoogleTestFailureExceptionC2ERKNS_14TestPartResultE
FN:2672,2724,_ZN7testing8internal35HandleExceptionsInMethodIfSupportedINS0_12UnitTestImplEbEET0_PT_MS4_FS3_vEPKc
FN:2672,2724,_ZN7testing8internal35HandleExceptionsInMethodIfSupportedINS0_15TestFactoryBaseEPNS_4TestEEET0_PT_MS6_FS5_vEPKc
FN:2672,2724,_ZN7testing8internal35HandleExceptionsInMethodIfSupportedINS_4TestEvEET0_PT_MS4_FS3_vEPKc
FN:2672,2724,_ZN7testing8internal35HandleExceptionsInMethodIfSupportedINS_9TestSuiteEvEET0_PT_MS4_FS3_vEPKc
FN:2729,2749,_ZN7testing4Test3RunEv
FN:2752,2754,_ZN7testing4Test15HasFatalFailureEv
FN:2757,2761,_ZN7testing4Test18HasNonfatalFailureEv
FN:2764,2766,_ZN7testing4Test9IsSkippedEv
FN:2772,2788,_ZN7testing8TestInfoC2ENSt7__cxx1112basic_stringIcSt11char_traitsIcESaIcEEES6_PKcS8_NS_8internal12CodeLocationEPKvPNS9_15TestFactoryBaseE
FN:2791,2791,_ZN7testing8TestInfoD2Ev
FN:2813,2823,_ZN7testing8internal23MakeAndRegisterTestInfoENSt7__cxx1112basic_stringIcSt11char_traitsIcESaIcEEEPKcS8_S8_NS0_12CodeLocationEPKvPFvvESD_PNS0_15TestFactoryBaseE
FN:2825,2841,_ZN7testing8internal26ReportInvalidTestSuiteTypeEPKcRKNS0_12CodeLocationE
FN:2846,2852,_ZN7testing8internal12UnitTestImpl26RegisterParameterizedTestsEv
FN:2858,2903,_ZN7testing8TestInfo3RunEv
FN:2906,2925,_ZN7testing8TestInfo4SkipEv
FN:2930,2932,_ZNK7testing9TestSuite21successful_test_countEv
FN:2935,2937,_ZNK7testing9TestSuite18skipped_test_countEv
FN:2940,2942,_ZNK7testing9TestSuite17failed_test_countEv
FN:2945,2947,_ZNK7testing9TestSuite30reportable_disabled_test_countEv
FN:2950,2952,_ZNK7testing9TestSuite19disabled_test_countEv
FN:2955,2957,_ZNK7testing9TestSuite21reportable_test_countEv
FN:2960,2962,_ZNK7testing9TestSuite17test_to_run_countEv
FN:2965,2967,_ZNK7testing9TestSuite16total_test_countEv
FN:2978,2987,_ZN7testing9TestSuiteC2ERKNSt7__cxx1112basic_stringIcSt11char_traitsIcESaIcEEEPKcPFvvESC_
FN:2990,2993,_ZN7testing9TestSuiteD0Ev
FN:2990,2993,_ZN7testing9TestSuiteD2Ev
FN:2997,3000,_ZNK7testing9TestSuite11GetTestInfoEi
FN:3004,3007,_ZN7testing9TestSuite18GetMutableTestInfoEi
FN:3011,3014,_ZN7testing9TestSuite11AddTestInfoEPNS_8TestInfoE
FN:3017,3087,_ZN7testing9TestSuite3RunEv
FN:3090,3116,_ZN7testing9TestSuite4SkipEv
FN:3119,3122,_ZN7testing9TestSuite11ClearResultEv
FN:3125,3127,_ZN7testing9TestSuite12ShuffleTestsEPNS_8internal6RandomE
FN:3130,3134,_ZN7testing9TestSuite14UnshuffleTestsEv
FN:3141,3145,_ZN7testingL19FormatCountableNounEiPKcS1_
FN:3186,3195,_ZN7testing8internalL27PrintTestPartResultToStringERKNS_14TestPartResultE
FN:3198,3213,_ZN7testing8internalL19PrintTestPartResultERKNS_14TestPartResultE
FN:3269,3281,_ZN7testing8internalL16GetAnsiColorCodeENS0_12_GLOBAL__N_110GTestColorE
FN:3286,3320,_ZN7testing8internal14ShouldUseColorEb
FN:3328,3373,_ZN7testing8internalL13ColoredPrintfENS0_12_GLOBAL__N_110GTestColorEPKcz
FN:3380,3394,_ZN7testing8internalL29PrintFullTestCommentIfPresentERKNS_8TestInfoE
FN:3407,3407,_ZN7testing8internal27PrettyUnitTestResultPrinter18OnTestProgramStartERKNS_8UnitTestE
FN:3410,3410,_ZN7testing8internal27PrettyUnitTestResultPrinter22OnEnvironmentsSetUpEndERKNS_8UnitTestE
FN:3429,3429,_ZN7testing8internal27PrettyUnitTestResultPrinter25OnEnvironmentsTearDownEndERKNS_8UnitTestE
FN:3431,3431,_ZN7testing8internal27PrettyUnitTestResultPrinter16OnTestProgramEndERKNS_8UnitTestE
FN:3440,3473,_ZN7testing8internal27PrettyUnitTestResultPrinter20OnTestIterationStartERKNS_8UnitTestEi
FN:3475,3480,_ZN7testing8internal27PrettyUnitTestResultPrinter24OnEnvironmentsSetUpStartERKNS_8UnitTestE
FN:3483,3494,_ZN7testing8internal27PrettyUnitTestResultPrinter15OnTestCaseStartERKNS_9TestSuiteE
FN:3511,3516,_ZN7testing8internal27PrettyUnitTestResultPrinter11OnTestStartERKNS_8TestInfoE
FN:3518,3523,_ZN7testing8internal27PrettyUnitTestResultPrinter14OnTestDisabledERKNS_8TestInfoE
FN:3526,3538,_ZN7testing8internal27PrettyUnitTestResultPrinter16OnTestPartResultERKNS_14TestPartResultE
FN:3540,3559,_ZN7testing8internal27PrettyUnitTestResultPrinter9OnTestEndERKNS_8TestInfoE
FN:3562,3571,_ZN7testing8internal27PrettyUnitTestResultPrinter13OnTestCaseEndERKNS_9TestSuiteE
FN:3585,3590,_ZN7testing8internal27PrettyUnitTestResultPrinter27OnEnvironmentsTearDownStartERKNS_8UnitTestE
FN:3593,3616,_ZN7testing8internal27PrettyUnitTestResultPrinter16PrintFailedTestsERKNS_8UnitTestE
FN:3620,3638,_ZN7testing8internal27PrettyUnitTestResultPrinter21PrintFailedTestSuitesERKNS_8UnitTestE
FN:3641,3662,_ZN7testing8internal27PrettyUnitTestResultPrinter17PrintSkippedTestsERKNS_8UnitTestE
FN:3664,3700,_ZN7testing8internal27PrettyUnitTestResultPrinter18OnTestIterationEndERKNS_8UnitTestEi
FN:3715,3715,_ZN7testing8internal26BriefUnitTestResultPrinter18OnTestProgramStartERKNS_8UnitTestE
FN:3716,3717,_ZN7testing8internal26BriefUnitTestResultPrinter20OnTestIterationStartERKNS_8UnitTestEi
FN:3718,3718,_ZN7testing8internal26BriefUnitTestResultPrinter24OnEnvironmentsSetUpStartERKNS_8UnitTestE
FN:3719,3719,_ZN7testing8internal26BriefUnitTestResultPrinter22OnEnvironmentsSetUpEndERKNS_8UnitTestE
FN:3721,3721,_ZN7testing8internal26BriefUnitTestResultPrinter15OnTestCaseStartERKNS_9TestSuiteE
FN:3726,3726,_ZN7testing8internal26BriefUnitTestResultPrinter11OnTestStartERKNS_8TestInfoE
FN:3727,3727,_ZN7testing8internal26BriefUnitTestResultPrinter14OnTestDisabledERKNS_8TestInfoE
FN:3732,3732,_ZN7testing8internal26BriefUnitTestResultPrinter13OnTestCaseEndERKNS_9TestSuiteE
FN:3737,3737,_ZN7testing8internal26BriefUnitTestResultPrinter27OnEnvironmentsTearDownStartERKNS_8UnitTestE
FN:3738,3738,_ZN7testing8internal26BriefUnitTestResultPrinter25OnEnvironmentsTearDownEndERKNS_8UnitTestE
FN:3740,3740,_ZN7testing8internal26BriefUnitTestResultPrinter16OnTestProgramEndERKNS_8UnitTestE
FN:3744,3756,_ZN7testing8internal26BriefUnitTestResultPrinter16OnTestPartResultERKNS_14TestPartResultE
FN:3758,3773,_ZN7testing8internal26BriefUnitTestResultPrinter9OnTestEndERKNS_8TestInfoE
FN:3775,3805,_ZN7testing8internal26BriefUnitTestResultPrinter18OnTestIterationEndERKNS_8UnitTestEi
FN:3858,3860,_ZN7testing8internal17TestEventRepeaterD0Ev
FN:3858,3860,_ZN7testing8internal17TestEventRepeaterD2Ev
FN:3862,3864,_ZN7testing8internal17TestEventRepeater6AppendEPNS_17TestEventListenerE
FN:3866,3875,_ZN7testing8internal17TestEventRepeater7ReleaseEPNS_17TestEventListenerE
FN:3898,3898,_ZN7testing8internal17TestEventRepeater18OnTestProgramStartERKNS_8UnitTestE
FN:3899,3899,_ZN7testing8internal17TestEventRepeater24OnEnvironmentsSetUpStartERKNS_8UnitTestE
FN:3902,3902,_ZN7testing8internal17TestEventRepeater15OnTestCaseStartERKNS_9TestSuiteE
FN:3904,3904,_ZN7testing8internal17TestEventRepeater16OnTestSuiteStartERKNS_9TestSuiteE
FN:3905,3905,_ZN7testing8internal17TestEventRepeater11OnTestStartERKNS_8TestInfoE
FN:3906,3906,_ZN7testing8internal17TestEventRepeater14OnTestDisabledERKNS_8TestInfoE
FN:3907,3907,_ZN7testing8internal17TestEventRepeater16OnTestPartResultERKNS_14TestPartResultE
FN:3908,3908,_ZN7testing8internal17TestEventRepeater27OnEnvironmentsTearDownStartERKNS_8UnitTestE
FN:3909,3909,_ZN7testing8internal17TestEventRepeater22OnEnvironmentsSetUpEndERKNS_8UnitTestE
FN:3910,3910,_ZN7testing8internal17TestEventRepeater25OnEnvironmentsTearDownEndERKNS_8UnitTestE
FN:3911,3911,_ZN7testing8internal17TestEventRepeater9OnTestEndERKNS_8TestInfoE
FN:3914,3914,_ZN7testing8internal17TestEventRepeater13OnTestCaseEndERKNS_9TestSuiteE
FN:3916,3916,_ZN7testing8internal17TestEventRepeater14OnTestSuiteEndERKNS_9TestSuiteE
FN:3917,3917,_ZN7testing8internal17TestEventRepeater16OnTestProgramEndERKNS_8UnitTestE
FN:3922,3929,_ZN7testing8internal17TestEventRepeater20OnTestIterationStartERKNS_8UnitTestEi
FN:3931,3938,_ZN7testing8internal17TestEventRepeater18OnTestIterationEndERKNS_8UnitTestEi
FN:4040,4045,_ZN7testing8internal24XmlUnitTestResultPrinterC2EPKc
FN:4048,4055,_ZN7testing8internal24XmlUnitTestResultPrinter18OnTestIterationEndERKNS_8UnitTestEi
FN:4057,4064,_ZN7testing8internal24XmlUnitTestResultPrinter23ListTestsMatchingFilterERKSt6vectorIPNS_9TestSuiteESaIS4_EE
FN:4076,4118,_ZN7testing8internal24XmlUnitTestResultPrinter9EscapeXmlERKNSt7__cxx1112basic_stringIcSt11char_traitsIcESaIcEEEb
FN:4123,4132,_ZN7testing8internal24XmlUnitTestResultPrinter26RemoveInvalidXmlCharactersERKNSt7__cxx1112basic_stringIcSt11char_traitsIcESaIcEEE
FN:4151,4162,_ZN7testing8internal27FormatTimeInMillisAsSecondsB5cxx11El
FN:416,430,_ZN7testing8internal6Random8GenerateEj
FN:4185,4197,_ZN7testing8internal32FormatEpochTimeInMillisAsIso8601B5cxx11El
FN:4200,4217,_ZN7testing8internal24XmlUnitTestResultPrinter21OutputXmlCDataSectionEPSoPKc
FN:4219,4231,_ZN7testing8internal24XmlUnitTestResultPrinter18OutputXmlAttributeEPSoRKNSt7__cxx1112basic_stringIcSt11char_traitsIcESaIcEEESA_SA_
FN:4234,4255,_ZN7testing8internal24XmlUnitTestResultPrinter31OutputXmlTestSuiteForTestResultEPSoRKNS_10TestResultE
FN:4258,4274,_ZN7testing8internal24XmlUnitTestResultPrinter30OutputXmlTestCaseForTestResultEPSoRKNS_10TestResultE
FN:4277,4321,_ZN7testing8internal24XmlUnitTestResultPrinter17OutputXmlTestInfoEPSoPKcRKNS_8TestInfoE
FN:4323,4367,_ZN7testing8internal24XmlUnitTestResultPrinter19OutputXmlTestResultEPSoRKNS_10TestResultE
FN:435,435,_ZN7testing8internalL18GTestIsInitializedEv
FN:4370,4406,_ZN7testing8internal24XmlUnitTestResultPrinter17PrintXmlTestSuiteEPSoRKNS_9TestSuiteE
FN:440,447,_ZN7testing8internalL20SumOverTestSuiteListERKSt6vectorIPNS_9TestSuiteESaIS3_EEMS2_KFivE
FN:4409,4452,_ZN7testing8internal24XmlUnitTestResultPrinter16PrintXmlUnitTestEPSoRKNS_8UnitTestE
FN:4454,4474,_ZN7testing8internal24XmlUnitTestResultPrinter17PrintXmlTestsListEPSoRKSt6vectorIPNS_9TestSuiteESaIS5_EE
FN:4476,4494,_ZN7testing8internal24XmlUnitTestResultPrinter23OutputXmlTestPropertiesEPSoRKNS_10TestResultERKNSt7__cxx1112basic_stringIcSt11char_traitsIcESaIcEEE
FN:450,452,_ZN7testing8internalL15TestSuitePassedEPKNS_9TestSuiteE
FN:455,457,_ZN7testing8internalL15TestSuiteFailedEPKNS_9TestSuiteE
FN:4569,4574,_ZN7testing8internal25JsonUnitTestResultPrinterC2EPKc
FN:4576,4583,_ZN7testing8internal25JsonUnitTestResultPrinter18OnTestIterationEndERKNS_8UnitTestEi
FN:4586,4623,_ZN7testing8internal25JsonUnitTestResultPrinter10EscapeJsonERKNSt7__cxx1112basic_stringIcSt11char_traitsIcESaIcEEE
FN:461,463,_ZN7testing8internalL18ShouldRunTestSuiteEPKNS_9TestSuiteE
FN:4629,4633,_ZN7testing8internalL28FormatTimeInMillisAsDurationEl
FN:4637,4648,_ZN7testing8internalL32FormatEpochTimeInMillisAsRFC3339El
FN:4654,4670,_ZN7testing8internal25JsonUnitTestResultPrinter13OutputJsonKeyEPSoRKNSt7__cxx1112basic_stringIcSt11char_traitsIcESaIcEEESA_SA_SA_b
FN:4672,4685,_ZN7testing8internal25JsonUnitTestResultPrinter13OutputJsonKeyEPSoRKNSt7__cxx1112basic_stringIcSt11char_traitsIcESaIcEEESA_iSA_b
FN:4688,4712,_ZN7testing8internal25JsonUnitTestResultPrinter32OutputJsonTestSuiteForTestResultEPSoRKNS_10TestResultE
FN:4715,4733,_ZN7testing8internal25JsonUnitTestResultPrinter31OutputJsonTestCaseForTestResultEPSoRKNS_10TestResultE
FN:4736,4781,_ZN7testing8internal25JsonUnitTestResultPrinter18OutputJsonTestInfoEPSoPKcRKNS_8TestInfoE
FN:4783,4835,_ZN7testing8internal25JsonUnitTestResultPrinter20OutputJsonTestResultEPSoRKNS_10TestResultE
FN:479,481,_ZN7testing8internal12AssertHelperC2ENS_14TestPartResult4TypeEPKciS5_
FN:483,483,_ZN7testing8internal12AssertHelperD2Ev
FN:4838,4888,_ZN7testing8internal25JsonUnitTestResultPrinter18PrintJsonTestSuiteEPSoRKNS_9TestSuiteE
FN:486,495,_ZNK7testing8internal12AssertHelperaSERKNS_7MessageE
FN:4891,4945,_ZN7testing8internal25JsonUnitTestResultPrinter17PrintJsonUnitTestEPSoRKNS_8UnitTestE
FN:4947,4971,_ZN7testing8internal25JsonUnitTestResultPrinter17PrintJsonTestListEPSoRKSt6vectorIPNS_9TestSuiteESaIS5_EE
FN:4974,4984,_ZN7testing8internal25JsonUnitTestResultPrinter20TestPropertiesAsJsonERKNS_10TestResultERKNSt7__cxx1112basic_stringIcSt11char_traitsIcESaIcEEE
FN:4996,5014,_ZN7testing8internal17StreamingListener9UrlEncodeB5cxx11EPKc
FN:5016,5055,_ZN7testing8internal17StreamingListener12SocketWriter14MakeConnectionEv
FN:5065,5113,_ZN7testing8internal18OsStackTraceGetter17CurrentStackTraceB5cxx11Eii
FN:510,514,_ZN7testing8internal12_GLOBAL__N_111FailureTestC2ERKNS0_12CodeLocationENSt7__cxx1112basic_stringIcSt11char_traitsIcESaIcEEEb
FN:5115,5125,_ZN7testing8internal18OsStackTraceGetter16UponLeavingGTestEv
FN:5132,5144,_ZN7testing8internal23ScopedPrematureExitFileC2EPKc
FN:5146,5157,_ZN7testing8internal23ScopedPrematureExitFileD2Ev
FN:516,523,_ZN7testing8internal12_GLOBAL__N_111FailureTest8TestBodyEv
FN:5171,5174,_ZN7testing18TestEventListenersC2Ev
FN:5176,5176,_ZN7testing18TestEventListenersD2Ev
FN:5182,5184,_ZN7testing18TestEventListeners6AppendEPNS_17TestEventListenerE
FN:5189,5195,_ZN7testing18TestEventListeners7ReleaseEPNS_17TestEventListenerE
FN:5199,5199,_ZN7testing18TestEventListeners8repeaterEv
FN:5206,5214,_ZN7testing18TestEventListeners23SetDefaultResultPrinterEPNS_17TestEventListenerE
FN:5221,5229,_ZN7testing18TestEventListeners22SetDefaultXmlGeneratorEPNS_17TestEventListenerE
FN:5233,5235,_ZNK7testing18TestEventListeners22EventForwardingEnabledEv
FN:5237,5239,_ZN7testing18TestEventListeners23SuppressEventForwardingEb
FN:5250,5262,_ZN7testing8UnitTest11GetInstanceEv
FN:5265,5267,_ZNK7testing8UnitTest27successful_test_suite_countEv
FN:5270,5272,_ZNK7testing8UnitTest23failed_test_suite_countEv
FN:5275,5277,_ZNK7testing8UnitTest22total_test_suite_countEv
FN:5281,5283,_ZNK7testing8UnitTest23test_suite_to_run_countEv
FN:5287,5289,_ZNK7testing8UnitTest26successful_test_case_countEv
FN:5290,5292,_ZNK7testing8UnitTest22failed_test_case_countEv
FN:5293,5295,_ZNK7testing8UnitTest21total_test_case_countEv
FN:5296,5298,_ZNK7testing8UnitTest22test_case_to_run_countEv
FN:5302,5304,_ZNK7testing8UnitTest21successful_test_countEv
FN:5307,5309,_ZNK7testing8UnitTest18skipped_test_countEv
FN:5312,5312,_ZNK7testing8UnitTest17failed_test_countEv
FN:5315,5317,_ZNK7testing8UnitTest30reportable_disabled_test_countEv
FN:5320,5322,_ZNK7testing8UnitTest19disabled_test_countEv
FN:5325,5327,_ZNK7testing8UnitTest21reportable_test_countEv
FN:533,535,_ZN7testing8internal33GetIgnoredParameterizedTestSuitesB5cxx11Ev
FN:5330,5330,_ZNK7testing8UnitTest16total_test_countEv
FN:5333,5333,_ZNK7testing8UnitTest17test_to_run_countEv
FN:5337,5339,_ZNK7testing8UnitTest15start_timestampEv
FN:5342,5344,_ZNK7testing8UnitTest12elapsed_timeEv
FN:5348,5348,_ZNK7testing8UnitTest6PassedEv
FN:5352,5352,_ZNK7testing8UnitTest6FailedEv
FN:5356,5358,_ZNK7testing8UnitTest12GetTestSuiteEi
FN:5362,5364,_ZNK7testing8UnitTest11GetTestCaseEi
FN:5369,5371,_ZNK7testing8UnitTest18ad_hoc_test_resultEv
FN:5375,5377,_ZN7testing8UnitTest19GetMutableTestSuiteEi
FN:5379,5381,_ZN7testing8UnitTest16UponLeavingGTestEv
FN:538,540,_ZN7testing8internal13MarkAsIgnoredC2EPKc
FN:5384,5387,_ZN7testing8UnitTest22set_current_test_suiteEPNS_9TestSuiteE
FN:5390,5393,_ZN7testing8UnitTest21set_current_test_infoEPNS_8TestInfoE
FN:5397,5397,_ZN7testing8UnitTest9listenersEv
FN:5409,5416,_ZN7testing8UnitTest14AddEnvironmentEPNS_11EnvironmentE
FN:5422,5492,_ZN7testing8UnitTest17AddTestPartResultENS_14TestPartResult4TypeEPKciRKNSt7__cxx1112basic_stringIcSt11char_traitsIcESaIcEEESC_
FN:544,587,_ZN7testing8internal23InsertSyntheticTestCaseERKNSt7__cxx1112basic_stringIcSt11char_traitsIcESaIcEEENS0_12CodeLocationEb
FN:5499,5502,_ZN7testing8UnitTest14RecordPropertyERKNSt7__cxx1112basic_stringIcSt11char_traitsIcESaIcEEES8_
FN:5509,5599,_ZN7testing8UnitTest3RunEv
FN:5604,5606,_ZNK7testing8UnitTest20original_working_dirEv
FN:5611,5615,_ZNK7testing8UnitTest18current_test_suiteEv
FN:5619,5623,_ZNK7testing8UnitTest17current_test_caseEv
FN:5628,5632,_ZNK7testing8UnitTest17current_test_infoEv
FN:5635,5635,_ZNK7testing8UnitTest11random_seedEv
FN:5640,5642,_ZN7testing8UnitTest27parameterized_test_registryEv
FN:5645,5645,_ZN7testing8UnitTestC2Ev
FN:5648,5648,_ZN7testing8UnitTestD0Ev
FN:5648,5648,_ZN7testing8UnitTestD2Ev
FN:5652,5656,_ZN7testing8UnitTest14PushGTestTraceERKNS_8internal9TraceInfoE
FN:5659,5662,_ZN7testing8UnitTest13PopGTestTraceEv
FN:5666,5693,_ZN7testing8internal12UnitTestImplC2EPNS_8UnitTestE
FN:5695,5703,_ZN7testing8internal12UnitTestImplD0Ev
FN:5695,5703,_ZN7testing8internal12UnitTestImplD2Ev
FN:5710,5725,_ZN7testing8internal12UnitTestImpl14RecordPropertyERKNS_12TestPropertyE
FN:5730,5733,_ZN7testing8internal12UnitTestImpl32SuppressTestEventsIfInSubprocessEv
FN:5738,5757,_ZN7testing8internal12UnitTestImpl18ConfigureXmlOutputEv
FN:5762,5774,_ZN7testing8internal12UnitTestImpl24ConfigureStreamingOutputEv
FN:5782,5822,_ZN7testing8internal12UnitTestImpl19PostFlagParsingInitEv
FN:583,586,_ZZN7testing8internal23InsertSyntheticTestCaseERKNSt7__cxx1112basic_stringIcSt11char_traitsIcESaIcEEENS0_12CodeLocationEbENKUlvE_clEv
FN:5836,5876,_ZN7testing8internal12UnitTestImpl12GetTestSuiteERKNSt7__cxx1112basic_stringIcSt11char_traitsIcESaIcEEEPKcPFvvESD_
FN:5880,5880,_ZN7testing8internalL16SetUpEnvironmentEPNS_11EnvironmentE
FN:5881,5881,_ZN7testing8internalL19TearDownEnvironmentEPNS_11EnvironmentE
FN:5886,5897,_ZN7testing8internalL30AppendToTestWarningsOutputFileERKNSt7__cxx1112basic_stringIcSt11char_traitsIcESaIcEEE
FN:589,593,_ZN7testing8internal34RegisterTypeParameterizedTestSuiteEPKcNS0_12CodeLocationE
FN:5909,6138,_ZN7testing8internal12UnitTestImpl11RunAllTestsEv
FN:595,598,_ZN7testing8internal47RegisterTypeParameterizedTestSuiteInstantiationEPKc
FN:600,604,_ZN7testing8internal34TypeParameterizedTestSuiteRegistry17RegisterTestSuiteEPKcNS0_12CodeLocationE
FN:606,615,_ZN7testing8internal34TypeParameterizedTestSuiteRegistry21RegisterInstantiationEPKc
FN:6145,6159,_ZN7testing8internal30WriteToShardStatusFileIfNeededEv
FN:6168,6207,_ZN7testing8internal11ShouldShardEPKcS2_b
FN:617,653,_ZN7testing8internal34TypeParameterizedTestSuiteRegistry22CheckForInstantiationsEv
FN:6212,6224,_ZN7testing8internal17Int32FromEnvOrDieEPKci
FN:6230,6232,_ZN7testing8internal20ShouldRunTestOnShardEiii
FN:6241,6293,_ZN7testing8internal12UnitTestImpl11FilterTestsENS1_18ReactionToShardingE
FN:6299,6317,_ZNK7testing8internal12UnitTestImpl30ShouldWarnIfNoTestsMatchFilterEv
FN:6323,6339,_ZN7testing8internalL14PrintOnOneLineEPKci
FN:6342,6394,_ZN7testing8internal12UnitTestImpl23ListTestsMatchingFilterEv
FN:6401,6407,_ZN7testing8internal12UnitTestImpl25set_os_stack_trace_getterEPNS0_27OsStackTraceGetterInterfaceE
FN:6412,6422,_ZN7testing8internal12UnitTestImpl21os_stack_trace_getterEv
FN:6425,6433,_ZN7testing8internal12UnitTestImpl19current_test_resultEv
FN:6437,6449,_ZN7testing8internal12UnitTestImpl12ShuffleTestsEv
FN:6452,6459,_ZN7testing8internal12UnitTestImpl14UnshuffleTestsEv
FN:6472,6476,_ZN7testing8internal31GetCurrentOsStackTraceExceptTopB5cxx11Ei
FN:648,651,_ZZN7testing8internal34TypeParameterizedTestSuiteRegistry22CheckForInstantiationsEvENKUlvE_clEv
FN:6484,6484,_ZN7testing8internal6IsTrueEb
FN:6486,6493,_ZN7testing8internal10AlwaysTrueEv
FN:6498,6505,_ZN7testing8internal10SkipPrefixEPKcPS2_
FN:6512,6538,_ZN7testing8internalL14ParseFlagValueEPKcS2_b
FN:6550,6560,_ZN7testing8internalL9ParseFlagEPKcS2_Pb
FN:6566,6576,_ZN7testing8internal9ParseFlagEPKcS2_Pi
FN:658,667,_ZN7testing8internal8GetArgvsB5cxx11Ev
FN:6583,6593,_ZN7testing8internalL9ParseFlagINSt7__cxx1112basic_stringIcSt11char_traitsIcESaIcEEEEEbPKcS9_PT_
FN:6601,6607,_ZN7testing8internalL23HasGoogleTestFlagPrefixEPKc
FN:6618,6650,_ZN7testing8internalL17PrintColorEncodedEPKc
FN:672,685,_ZN7testing8internal24GetCurrentExecutableNameEv
FN:6748,6781,_ZN7testing8internalL19ParseGoogleTestFlagEPKc
FN:6784,6798,_ZN7testing8internalL17LoadFlagsFromFileERKNSt7__cxx1112basic_stringIcSt11char_traitsIcESaIcEEE
FN:6805,6852,_ZN7testing8internal28ParseGoogleTestFlagsOnlyImplIcEEvPiPPT_
FN:6805,6852,_ZN7testing8internal28ParseGoogleTestFlagsOnlyImplIwEEvPiPPT_
FN:6860,6923,_ZN7testing8internal24ParseGoogleTestFlagsOnlyEPiPPc
FN:691,699,_ZN7testing8internal15UnitTestOptions15GetOutputFormatB5cxx11Ev
FN:6924,6926,_ZN7testing8internal24ParseGoogleTestFlagsOnlyEPiPPw
FN:6933,6958,_ZN7testing8internal18InitGoogleTestImplIcEEvPiPPT_
FN:6933,6958,_ZN7testing8internal18InitGoogleTestImplIwEEvPiPPT_
FN:6971,6977,_ZN7testing14InitGoogleTestEPiPPc
FN:6981,6987,_ZN7testing14InitGoogleTestEPiPPw
FN:6991,7003,_ZN7testing14InitGoogleTestEv
FN:7011,7024,_ZN7testingL13GetDirFromEnvESt16initializer_listIPKcES2_c
FN:7027,7037,_ZN7testing7TempDirB5cxx11Ev
FN:704,731,_ZN7testing8internal15UnitTestOptions27GetAbsolutePathToOutputFileB5cxx11Ev
FN:7042,7045,_ZN7testingL29GetCurrentExecutableDirectoryEv
FN:7049,7062,_ZN7testing6SrcDirB5cxx11Ev
FN:7069,7076,_ZN7testing11ScopedTrace9PushTraceEPKciNSt7__cxx1112basic_stringIcSt11char_traitsIcESaIcEEE
FN:7079,7081,_ZN7testing11ScopedTraceD2Ev
FN:740,785,_ZN7testing8internalL20PatternMatchesStringERKNSt7__cxx1112basic_stringIcSt11char_traitsIcESaIcEEEPKcSA_
FN:789,792,_ZN7testing8internal12_GLOBAL__N_113IsGlobPatternERKNSt7__cxx1112basic_stringIcSt11char_traitsIcESaIcEEE
FN:799,813,_ZN7testing8internal12_GLOBAL__N_114UnitTestFilterC2ERKNSt7__cxx1112basic_stringIcSt11char_traitsIcESaIcEEE
FN:817,825,_ZNK7testing8internal12_GLOBAL__N_114UnitTestFilter11MatchesNameERKNSt7__cxx1112basic_stringIcSt11char_traitsIcESaIcEEE
FN:839,864,_ZN7testing8internal12_GLOBAL__N_133PositiveAndNegativeUnitTestFilterC2ERKNSt7__cxx1112basic_stringIcSt11char_traitsIcESaIcEEE
FN:869,872,_ZNK7testing8internal12_GLOBAL__N_133PositiveAndNegativeUnitTestFilter11MatchesTestERKNSt7__cxx1112basic_stringIcSt11char_traitsIcESaIcEEESA_
FN:876,879,_ZNK7testing8internal12_GLOBAL__N_133PositiveAndNegativeUnitTestFilter11MatchesNameERKNSt7__cxx1112basic_stringIcSt11char_traitsIcESaIcEEE
FN:887,890,_ZN7testing8internal15UnitTestOptions13MatchesFilterERKNSt7__cxx1112basic_stringIcSt11char_traitsIcESaIcEEEPKc
FN:894,900,_ZN7testing8internal15UnitTestOptions17FilterMatchesTestERKNSt7__cxx1112basic_stringIcSt11char_traitsIcESaIcEEES9_
FN:944,948,_ZN7testing32ScopedFakeTestPartResultReporterC2EPNS_19TestPartResultArrayE
FN:953,957,_ZN7testing32ScopedFakeTestPartResultReporterC2ENS0_13InterceptModeEPNS_19TestPartResultArrayE
FN:959,968,_ZN7testing32ScopedFakeTestPartResultReporter4InitEv
FN:972,979,_ZN7testing32ScopedFakeTestPartResultReporterD0Ev
FN:972,979,_ZN7testing32ScopedFakeTestPartResultReporterD2Ev
FN:983,986,_ZN7testing32ScopedFakeTestPartResultReporter20ReportTestPartResultERKNS_14TestPartResultE
FN:999,999,_ZN7testing8internal13GetTestTypeIdEv
FNDA:0,_ZN7testing8internalL13HasOneFailureEPKcS2_S2_RKNS_19TestPartResultArrayENS_14TestPartResult4TypeERKNSt7__cxx1112basic_stringIcSt11char_traitsIcESaIcEEE
FNDA:0,_ZN7testing8internal20SingleFailureCheckerC2EPKNS_19TestPartResultArrayENS_14TestPartResult4TypeERKNSt7__cxx1112basic_stringIcSt11char_traitsIcESaIcEEE
FNDA:0,_ZN7testing8internal20SingleFailureCheckerD2Ev
FNDA:0,_ZN7testing8internal35DefaultGlobalTestPartResultReporterC2EPNS0_12UnitTestImplE
FNDA:0,_ZN7testing8internal35DefaultGlobalTestPartResultReporter20ReportTestPartResultERKNS_14TestPartResultE
FNDA:0,_ZN7testing8internal38DefaultPerThreadTestPartResultReporterC2EPNS0_12UnitTestImplE
FNDA:0,_ZN7testing8internal38DefaultPerThreadTestPartResultReporter20ReportTestPartResultERKNS_14TestPartResultE
FNDA:0,_ZN7testing8internal12UnitTestImpl31GetGlobalTestPartResultReporterEv
FNDA:0,_ZN7testing8internal12UnitTestImpl31SetGlobalTestPartResultReporterEPNS_31TestPartResultReporterInterfaceE
FNDA:0,_ZN7testing8internal12UnitTestImpl41GetTestPartResultReporterForCurrentThreadEv
FNDA:0,_ZN7testing8internal12UnitTestImpl41SetTestPartResultReporterForCurrentThreadEPNS_31TestPartResultReporterInterfaceE
FNDA:0,_ZNK7testing8internal12UnitTestImpl27successful_test_suite_countEv
FNDA:2,_ZNK7testing8internal12UnitTestImpl23failed_test_suite_countEv
FNDA:0,_ZNK7testing8internal12UnitTestImpl22total_test_suite_countEv
FNDA:2,_ZNK7testing8internal12UnitTestImpl23test_suite_to_run_countEv
FNDA:0,_ZNK7testing8internal12UnitTestImpl21successful_test_countEv
FNDA:0,_ZNK7testing8internal12UnitTestImpl18skipped_test_countEv
FNDA:0,_ZNK7testing8internal12UnitTestImpl17failed_test_countEv
FNDA:0,_ZNK7testing8internal12UnitTestImpl30reportable_disabled_test_countEv
FNDA:0,_ZNK7testing8internal12UnitTestImpl19disabled_test_countEv
FNDA:0,_ZNK7testing8internal12UnitTestImpl21reportable_test_countEv
FNDA:0,_ZNK7testing8internal12UnitTestImpl16total_test_countEv
FNDA:0,_ZNK7testing8internal12UnitTestImpl17test_to_run_countEv
FNDA:0,_ZN7testing8internal12UnitTestImpl28CurrentOsStackTraceExceptTopB5cxx11Ei
FNDA:0,_ZN7testing8internal15GetTimeInMillisEv
FNDA:0,_ZN7testing8internal6String13CStringEqualsEPKcS3_
FNDA:0,_ZN7testing8internalL24StreamWideCharsToMessageEPKwmPNS_7MessageE
FNDA:6,_ZN7testing8internal11SplitStringERKNSt7__cxx1112basic_stringIcSt11char_traitsIcESaIcEEEcPSt6vectorIS6_SaIS6_EE
FNDA:63,_ZN7testing7MessageC2Ev
FNDA:0,_ZN7testing7MessagelsEPKw
FNDA:0,_ZN7testing7MessagelsEPw
FNDA:0,_ZN7testing7MessagelsERKNSt7__cxx1112basic_stringIwSt11char_traitsIwESaIwEEE
FNDA:0,_ZNK7testing7Message9GetStringB5cxx11Ev
FNDA:0,_ZN7testing8internal13edit_distance21CalculateOptimalEditsERKSt6vectorImSaImEES6_
FNDA:0,_ZN7testing8internal13edit_distance12_GLOBAL__N_115InternalStrings5GetIdERKNSt7__cxx1112basic_stringIcSt11char_traitsIcESaIcEEE
FNDA:0,_ZN7testing8internal13edit_distance21CalculateOptimalEditsERKSt6vectorINSt7__cxx1112basic_stringIcSt11char_traitsIcESaIcEEESaIS8_EESC_
FNDA:0,_ZN7testing8internal13edit_distance12_GLOBAL__N_14Hunk8PushLineEcPKc
FNDA:0,_ZN7testing8internal13edit_distance12_GLOBAL__N_14Hunk7PrintToEPSo
FNDA:0,_ZN7testing8internal13edit_distance12_GLOBAL__N_14Hunk10FlushEditsEv
FNDA:0,_ZNK7testing8internal13edit_distance12_GLOBAL__N_14Hunk11PrintHeaderEPSo
FNDA:0,_ZN7testing8internal13edit_distance17CreateUnifiedDiffERKSt6vectorINSt7__cxx1112basic_stringIcSt11char_traitsIcESaIcEEESaIS8_EESC_m
FNDA:0,_ZN7testing8internal12_GLOBAL__N_118SplitEscapedStringERKNSt7__cxx1112basic_stringIcSt11char_traitsIcESaIcEEE
FNDA:0,_ZN7testing8internal9EqFailureEPKcS2_RKNSt7__cxx1112basic_stringIcSt11char_traitsIcESaIcEEESA_b
FNDA:0,_ZN7testing8internal30GetBoolAssertionFailureMessageB5cxx11ERKNS_15AssertionResultEPKcS5_S5_
FNDA:0,_ZN7testing8internal20DoubleNearPredFormatEPKcS2_S2_ddd
FNDA:0,_ZN7testing8internal15FloatingPointLEIdEENS_15AssertionResultEPKcS4_T_S5_
FNDA:0,_ZN7testing8internal15FloatingPointLEIfEENS_15AssertionResultEPKcS4_T_S5_
FNDA:0,_ZN7testing7FloatLEEPKcS1_ff
FNDA:0,_ZN7testing8DoubleLEEPKcS1_dd
FNDA:0,_ZN7testing8internal14CmpHelperSTREQEPKcS2_S2_S2_
FNDA:0,_ZN7testing8internal18CmpHelperSTRCASEEQEPKcS2_S2_S2_
FNDA:0,_ZN7testing8internal14CmpHelperSTRNEEPKcS2_S2_S2_
FNDA:0,_ZN7testing8internal18CmpHelperSTRCASENEEPKcS2_S2_S2_
FNDA:0,_ZN7testing12_GLOBAL__N_115IsSubstringImplINSt7__cxx1112basic_stringIcSt11char_traitsIcESaIcEEEEENS_15AssertionResultEbPKcSA_RKT_SD_
FNDA:0,_ZN7testing12_GLOBAL__N_115IsSubstringImplINSt7__cxx1112basic_stringIwSt11char_traitsIwESaIwEEEEENS_15AssertionResultEbPKcSA_RKT_SD_
FNDA:0,_ZN7testing12_GLOBAL__N_115IsSubstringImplIPKcEENS_15AssertionResultEbS3_S3_RKT_S7_
FNDA:0,_ZN7testing12_GLOBAL__N_115IsSubstringImplIPKwEENS_15AssertionResultEbPKcS6_RKT_S9_
FNDA:0,_ZN7testing11IsSubstringEPKcS1_S1_S1_
FNDA:0,_ZN7testing11IsSubstringEPKcS1_PKwS3_
FNDA:0,_ZN7testing14IsNotSubstringEPKcS1_S1_S1_
FNDA:0,_ZN7testing14IsNotSubstringEPKcS1_PKwS3_
FNDA:0,_ZN7testing11IsSubstringEPKcS1_RKNSt7__cxx1112basic_stringIcSt11char_traitsIcESaIcEEES9_
FNDA:0,_ZN7testing14IsNotSubstringEPKcS1_RKNSt7__cxx1112basic_stringIcSt11char_traitsIcESaIcEEES9_
FNDA:0,_ZN7testing11IsSubstringEPKcS1_RKNSt7__cxx1112basic_stringIwSt11char_traitsIwESaIwEEES9_
FNDA:0,_ZN7testing14IsNotSubstringEPKcS1_RKNSt7__cxx1112basic_stringIwSt11char_traitsIwESaIwEEES9_
FNDA:0,_ZN7testing8internal15CodePointToUtf8B5cxx11Ej
FNDA:0,_ZN7testing8internal16WideStringToUtf8B5cxx11EPKwi
FNDA:0,_ZN7testing8internal6String15ShowWideCStringB5cxx11EPKw
FNDA:0,_ZN7testing8internal6String17WideCStringEqualsEPKwS3_
FNDA:0,_ZN7testing8internal14CmpHelperSTREQEPKcS2_PKwS4_
FNDA:0,_ZN7testing8internal14CmpHelperSTRNEEPKcS2_PKwS4_
FNDA:0,_ZN7testing8internal6String28CaseInsensitiveCStringEqualsEPKcS3_
FNDA:0,_ZN7testing8internalL18OpenFileForWritingERKNSt7__cxx1112basic_stringIcSt11char_traitsIcESaIcEEE
FNDA:0,_ZN7testing8internal6String32CaseInsensitiveWideCStringEqualsEPKwS3_
FNDA:0,_ZN7testing8internal6String23EndsWithCaseInsensitiveERKNSt7__cxx1112basic_stringIcSt11char_traitsIcESaIcEEES9_
FNDA:0,_ZN7testing8internal6String15FormatIntWidth2B5cxx11Ei
FNDA:0,_ZN7testing8internal6String15FormatIntWidthNB5cxx11Eii
FNDA:0,_ZN7testing8internal6String15FormatHexUInt32B5cxx11Ej
FNDA:0,_ZN7testing8internal6String12FormatHexIntB5cxx11Ei
FNDA:0,_ZN7testing8internal6String10FormatByteB5cxx11Eh
FNDA:63,_ZN7testing8internal20StringStreamToStringEPNSt7__cxx1118basic_stringstreamIcSt11char_traitsIcESaIcEEE
FNDA:0,_ZN7testing8internal17AppendUserMessageERKNSt7__cxx1112basic_stringIcSt11char_traitsIcESaIcEEERKNS_7MessageE
FNDA:0,_ZN7testing10TestResultC2Ev
FNDA:11,_ZN7testing10TestResultD2Ev
FNDA:0,_ZNK7testing10TestResult17GetTestPartResultEi
FNDA:0,_ZNK7testing10TestResult15GetTestPropertyEi
FNDA:0,_ZN7testing10TestResult20ClearTestPartResultsEv
FNDA:0,_ZN7testing10TestResult17AddTestPartResultERKNS_14TestPartResultE
FNDA:0,_ZN7testing10TestResult14RecordPropertyERKNSt7__cxx1112basic_stringIcSt11char_traitsIcESaIcEEERKNS_12TestPropertyE
FNDA:0,_ZN7testingL31GetReservedAttributesForElementERKNSt7__cxx1112basic_stringIcSt11char_traitsIcESaIcEEE
FNDA:0,_ZN7testingL37GetReservedOutputAttributesForElementERKNSt7__cxx1112basic_stringIcSt11char_traitsIcESaIcEEE
FNDA:0,_ZN7testingL14FormatWordListERKSt6vectorINSt7__cxx1112basic_stringIcSt11char_traitsIcESaIcEEESaIS6_EE
FNDA:0,_ZN7testingL24ValidateTestPropertyNameERKNSt7__cxx1112basic_stringIcSt11char_traitsIcESaIcEEERKSt6vectorIS5_SaIS5_EE
FNDA:0,_ZN7testing10TestResult20ValidateTestPropertyERKNSt7__cxx1112basic_stringIcSt11char_traitsIcESaIcEEERKNS_12TestPropertyE
FNDA:10,_ZN7testing10TestResult5ClearEv
FNDA:0,_ZN7testingL15TestPartSkippedERKNS_14TestPartResultE
FNDA:47,_ZNK7testing10TestResult7SkippedEv
FNDA:97,_ZNK7testing10TestResult6FailedEv
FNDA:0,_ZN7testingL21TestPartFatallyFailedERKNS_14TestPartResultE
FNDA:19,_ZNK7testing10TestResult15HasFatalFailureEv
FNDA:0,_ZN7testingL24TestPartNonfatallyFailedERKNS_14TestPartResultE
FNDA:1,_ZN7testingL18GetDefaultFailFastEv
FNDA:0,_ZNK7testing10TestResult18HasNonfatalFailureEv
FNDA:0,_ZNK7testing10TestResult16total_part_countEv
FNDA:0,_ZNK7testing10TestResult19test_property_countEv
FNDA:9,_ZN7testing4TestC2Ev
FNDA:0,_ZN7testing4TestD0Ev
FNDA:9,_ZN7testing4TestD2Ev
FNDA:9,_ZN7testing4Test5SetUpEv
FNDA:9,_ZN7testing4Test8TearDownEv
FNDA:0,_ZN7testing4Test14RecordPropertyERKNSt7__cxx1112basic_stringIcSt11char_traitsIcESaIcEEES8_
FNDA:0,_ZN7testing8internal30ReportFailureInUnknownLocationENS_14TestPartResult4TypeERKNSt7__cxx1112basic_stringIcSt11char_traitsIcESaIcEEE
FNDA:9,_ZN7testing4Test19HasSameFixtureClassEv
FNDA:0,_ZN7testing8internalL25FormatCxxExceptionMessageEPKcS2_
FNDA:0,_ZN7testing8internal26GoogleTestFailureExceptionC2ERKNS_14TestPartResultE
FNDA:1,_ZN7testing8internal35HandleExceptionsInMethodIfSupportedINS0_12UnitTestImplEbEET0_PT_MS4_FS3_vEPKc
FNDA:9,_ZN7testing8internal35HandleExceptionsInMethodIfSupportedINS0_15TestFactoryBaseEPNS_4TestEEET0_PT_MS6_FS5_vEPKc
FNDA:36,_ZN7testing8internal35HandleExceptionsInMethodIfSupportedINS_4TestEvEET0_PT_MS4_FS3_vEPKc
FNDA:2,_ZN7testing8internal35HandleExceptionsInMethodIfSupportedINS_9TestSuiteEvEET0_PT_MS4_FS3_vEPKc
FNDA:9,_ZN7testing4Test3RunEv
FNDA:19,_ZN7testing4Test15HasFatalFailureEv
FNDA:0,_ZN7testing4Test18HasNonfatalFailureEv
FNDA:19,_ZN7testing4Test9IsSkippedEv
FNDA:9,_ZN7testing8TestInfoC2ENSt7__cxx1112basic_stringIcSt11char_traitsIcESaIcEEES6_PKcS8_NS_8internal12CodeLocationEPKvPNS9_15TestFactoryBaseE
FNDA:9,_ZN7testing8TestInfoD2Ev
FNDA:9,_ZN7testing8internal23MakeAndRegisterTestInfoENSt7__cxx1112basic_stringIcSt11char_traitsIcESaIcEEEPKcS8_S8_NS0_12CodeLocationEPKvPFvvESD_PNS0_15TestFactoryBaseE
FNDA:0,_ZN7testing8internal26ReportInvalidTestSuiteTypeEPKcRKNS0_12CodeLocationE
FNDA:1,_ZN7testing8internal12UnitTestImpl26RegisterParameterizedTestsEv
FNDA:9,_ZN7testing8TestInfo3RunEv
FNDA:0,_ZN7testing8TestInfo4SkipEv
FNDA:1,_ZNK7testing9TestSuite21successful_test_countEv
FNDA:1,_ZNK7testing9TestSuite18skipped_test_countEv
FNDA:2,_ZNK7testing9TestSuite17failed_test_countEv
FNDA:1,_ZNK7testing9TestSuite30reportable_disabled_test_countEv
FNDA:0,_ZNK7testing9TestSuite19disabled_test_countEv
FNDA:0,_ZNK7testing9TestSuite21reportable_test_countEv
FNDA:4,_ZNK7testing9TestSuite17test_to_run_countEv
FNDA:2,_ZNK7testing9TestSuite16total_test_countEv
FNDA:1,_ZN7testing9TestSuiteC2ERKNSt7__cxx1112basic_stringIcSt11char_traitsIcESaIcEEEPKcPFvvESC_
FNDA:1,_ZN7testing9TestSuiteD0Ev
FNDA:1,_ZN7testing9TestSuiteD2Ev
FNDA:0,_ZNK7testing9TestSuite11GetTestInfoEi
FNDA:0,_ZN7testing9TestSuite18GetMutableTestInfoEi
FNDA:9,_ZN7testing9TestSuite11AddTestInfoEPNS_8TestInfoE
FNDA:1,_ZN7testing9TestSuite3RunEv
FNDA:0,_ZN7testing9TestSuite4SkipEv
FNDA:1,_ZN7testing9TestSuite11ClearResultEv
FNDA:0,_ZN7testing9TestSuite12ShuffleTestsEPNS_8internal6RandomE
FNDA:0,_ZN7testing9TestSuite14UnshuffleTestsEv
FNDA:7,_ZN7testingL19FormatCountableNounEiPKcS1_
FNDA:0,_ZN7testing8internalL27PrintTestPartResultToStringERKNS_14TestPartResultE
FNDA:0,_ZN7testing8internalL19PrintTestPartResultERKNS_14TestPartResultE
FNDA:0,_ZN7testing8internalL16GetAnsiColorCodeENS0_12_GLOBAL__N_110GTestColorE
FNDA:1,_ZN7testing8internal14ShouldUseColorEb
FNDA:25,_ZN7testing8internalL13ColoredPrintfENS0_12_GLOBAL__N_110GTestColorEPKcz
FNDA:0,_ZN7testing8internalL29PrintFullTestCommentIfPresentERKNS_8TestInfoE
FNDA:1,_ZN7testing8internal27PrettyUnitTestResultPrinter18OnTestProgramStartERKNS_8UnitTestE
FNDA:1,_ZN7testing8internal27PrettyUnitTestResultPrinter22OnEnvironmentsSetUpEndERKNS_8UnitTestE
FNDA:1,_ZN7testing8internal27PrettyUnitTestResultPrinter25OnEnvironmentsTearDownEndERKNS_8UnitTestE
FNDA:1,_ZN7testing8internal27PrettyUnitTestResultPrinter16OnTestProgramEndERKNS_8UnitTestE
FNDA:1,_ZN7testing8internal27PrettyUnitTestResultPrinter20OnTestIterationStartERKNS_8UnitTestEi
FNDA:1,_ZN7testing8internal27PrettyUnitTestResultPrinter24OnEnvironmentsSetUpStartERKNS_8UnitTestE
FNDA:1,_ZN7testing8internal27PrettyUnitTestResultPrinter15OnTestCaseStartERKNS_9TestSuiteE
FNDA:9,_ZN7testing8internal27PrettyUnitTestResultPrinter11OnTestStartERKNS_8TestInfoE
FNDA:0,_ZN7testing8internal27PrettyUnitTestResultPrinter14OnTestDisabledERKNS_8TestInfoE
FNDA:0,_ZN7testing8internal27PrettyUnitTestResultPrinter16OnTestPartResultERKNS_14TestPartResultE
FNDA:9,_ZN7testing8internal27PrettyUnitTestResultPrinter9OnTestEndERKNS_8TestInfoE
FNDA:1,_ZN7testing8internal27PrettyUnitTestResultPrinter13OnTestCaseEndERKNS_9TestSuiteE
FNDA:1,_ZN7testing8internal27PrettyUnitTestResultPrinter27OnEnvironmentsTearDownStartERKNS_8UnitTestE
FNDA:0,_ZN7testing8internal27PrettyUnitTestResultPrinter16PrintFailedTestsERKNS_8UnitTestE
FNDA:0,_ZN7testing8internal27PrettyUnitTestResultPrinter21PrintFailedTestSuitesERKNS_8UnitTestE
FNDA:0,_ZN7testing8internal27PrettyUnitTestResultPrinter17PrintSkippedTestsERKNS_8UnitTestE
FNDA:1,_ZN7testing8internal27PrettyUnitTestResultPrinter18OnTestIterationEndERKNS_8UnitTestEi
FNDA:0,_ZN7testing8internal26BriefUnitTestResultPrinter18OnTestProgramStartERKNS_8UnitTestE
FNDA:0,_ZN7testing8internal26BriefUnitTestResultPrinter20OnTestIterationStartERKNS_8UnitTestEi
FNDA:0,_ZN7testing8internal26BriefUnitTestResultPrinter24OnEnvironmentsSetUpStartERKNS_8UnitTestE
FNDA:0,_ZN7testing8internal26BriefUnitTestResultPrinter22OnEnvironmentsSetUpEndERKNS_8UnitTestE
FNDA:0,_ZN7testing8internal26BriefUnitTestResultPrinter15OnTestCaseStartERKNS_9TestSuiteE
FNDA:0,_ZN7testing8internal26BriefUnitTestResultPrinter11OnTestStartERKNS_8TestInfoE
FNDA:0,_ZN7testing8internal26BriefUnitTestResultPrinter14OnTestDisabledERKNS_8TestInfoE
FNDA:0,_ZN7testing8internal26BriefUnitTestResultPrinter13OnTestCaseEndERKNS_9TestSuiteE
FNDA:0,_ZN7testing8internal26BriefUnitTestResultPrinter27OnEnvironmentsTearDownStartERKNS_8UnitTestE
FNDA:0,_ZN7testing8internal26BriefUnitTestResultPrinter25OnEnvironmentsTearDownEndERKNS_8UnitTestE
FNDA:0,_ZN7testing8internal26BriefUnitTestResultPrinter16OnTestProgramEndERKNS_8UnitTestE
FNDA:0,_ZN7testing8internal26BriefUnitTestResultPrinter16OnTestPartResultERKNS_14TestPartResultE
FNDA:0,_ZN7testing8internal26BriefUnitTestResultPrinter9OnTestEndERKNS_8TestInfoE
FNDA:0,_ZN7testing8internal26BriefUnitTestResultPrinter18OnTestIterationEndERKNS_8UnitTestEi
FNDA:1,_ZN7testing8internal17TestEventRepeaterD0Ev
FNDA:1,_ZN7testing8internal17TestEventRepeaterD2Ev
FNDA:0,_ZN7testing8internal17TestEventRepeater6AppendEPNS_17TestEventListenerE
FNDA:1,_ZN7testing8internal17TestEventRepeater7ReleaseEPNS_17TestEventListenerE
FNDA:1,_ZN7testing8internal17TestEventRepeater18OnTestProgramStartERKNS_8UnitTestE
FNDA:1,_ZN7testing8internal17TestEventRepeater24OnEnvironmentsSetUpStartERKNS_8UnitTestE
FNDA:1,_ZN7testing8internal17TestEventRepeater15OnTestCaseStartERKNS_9TestSuiteE
FNDA:1,_ZN7testing8internal17TestEventRepeater16OnTestSuiteStartERKNS_9TestSuiteE
FNDA:9,_ZN7testing8internal17TestEventRepeater11OnTestStartERKNS_8TestInfoE
FNDA:0,_ZN7testing8internal17TestEventRepeater14OnTestDisabledERKNS_8TestInfoE
FNDA:0,_ZN7testing8internal17TestEventRepeater16OnTestPartResultERKNS_14TestPartResultE
FNDA:1,_ZN7testing8internal17TestEventRepeater27OnEnvironmentsTearDownStartERKNS_8UnitTestE
FNDA:1,_ZN7testing8internal17TestEventRepeater22OnEnvironmentsSetUpEndERKNS_8UnitTestE
FNDA:1,_ZN7testing8internal17TestEventRepeater25OnEnvironmentsTearDownEndERKNS_8UnitTestE
FNDA:9,_ZN7testing8internal17TestEventRepeater9OnTestEndERKNS_8TestInfoE
FNDA:1,_ZN7testing8internal17TestEventRepeater13OnTestCaseEndERKNS_9TestSuiteE
FNDA:1,_ZN7testing8internal17TestEventRepeater14OnTestSuiteEndERKNS_9TestSuiteE
FNDA:1,_ZN7testing8internal17TestEventRepeater16OnTestProgramEndERKNS_8UnitTestE
FNDA:1,_ZN7testing8internal17TestEventRepeater20OnTestIterationStartERKNS_8UnitTestEi
FNDA:1,_ZN7testing8internal17TestEventRepeater18OnTestIterationEndERKNS_8UnitTestEi
FNDA:0,_ZN7testing8internal24XmlUnitTestResultPrinterC2EPKc
FNDA:0,_ZN7testing8internal24XmlUnitTestResultPrinter18OnTestIterationEndERKNS_8UnitTestEi
FNDA:0,_ZN7testing8internal24XmlUnitTestResultPrinter23ListTestsMatchingFilterERKSt6vectorIPNS_9TestSuiteESaIS4_EE
FNDA:0,_ZN7testing8internal24XmlUnitTestResultPrinter9EscapeXmlERKNSt7__cxx1112basic_stringIcSt11char_traitsIcESaIcEEEb
FNDA:0,_ZN7testing8internal24XmlUnitTestResultPrinter26RemoveInvalidXmlCharactersERKNSt7__cxx1112basic_stringIcSt11char_traitsIcESaIcEEE
FNDA:0,_ZN7testing8internal27FormatTimeInMillisAsSecondsB5cxx11El
FNDA:0,_ZN7testing8internal6Random8GenerateEj
FNDA:0,_ZN7testing8internal32FormatEpochTimeInMillisAsIso8601B5cxx11El
FNDA:0,_ZN7testing8internal24XmlUnitTestResultPrinter21OutputXmlCDataSectionEPSoPKc
FNDA:0,_ZN7testing8internal24XmlUnitTestResultPrinter18OutputXmlAttributeEPSoRKNSt7__cxx1112basic_stringIcSt11char_traitsIcESaIcEEESA_SA_
FNDA:0,_ZN7testing8internal24XmlUnitTestResultPrinter31OutputXmlTestSuiteForTestResultEPSoRKNS_10TestResultE
FNDA:0,_ZN7testing8internal24XmlUnitTestResultPrinter30OutputXmlTestCaseForTestResultEPSoRKNS_10TestResultE
FNDA:0,_ZN7testing8internal24XmlUnitTestResultPrinter17OutputXmlTestInfoEPSoPKcRKNS_8TestInfoE
FNDA:0,_ZN7testing8internal24XmlUnitTestResultPrinter19OutputXmlTestResultEPSoRKNS_10TestResultE
FNDA:2,_ZN7testing8internalL18GTestIsInitializedEv
FNDA:0,_ZN7testing8internal24XmlUnitTestResultPrinter17PrintXmlTestSuiteEPSoRKNS_9TestSuiteE
FNDA:7,_ZN7testing8internalL20SumOverTestSuiteListERKSt6vectorIPNS_9TestSuiteESaIS3_EEMS2_KFivE
FNDA:0,_ZN7testing8internal24XmlUnitTestResultPrinter16PrintXmlUnitTestEPSoRKNS_8UnitTestE
FNDA:0,_ZN7testing8internal24XmlUnitTestResultPrinter17PrintXmlTestsListEPSoRKSt6vectorIPNS_9TestSuiteESaIS5_EE
FNDA:0,_ZN7testing8internal24XmlUnitTestResultPrinter23OutputXmlTestPropertiesEPSoRKNS_10TestResultERKNSt7__cxx1112basic_stringIcSt11char_traitsIcESaIcEEE
FNDA:0,_ZN7testing8internalL15TestSuitePassedEPKNS_9TestSuiteE
FNDA:2,_ZN7testing8internalL15TestSuiteFailedEPKNS_9TestSuiteE
FNDA:0,_ZN7testing8internal25JsonUnitTestResultPrinterC2EPKc
FNDA:0,_ZN7testing8internal25JsonUnitTestResultPrinter18OnTestIterationEndERKNS_8UnitTestEi
FNDA:0,_ZN7testing8internal25JsonUnitTestResultPrinter10EscapeJsonERKNSt7__cxx1112basic_stringIcSt11char_traitsIcESaIcEEE
FNDA:2,_ZN7testing8internalL18ShouldRunTestSuiteEPKNS_9TestSuiteE
FNDA:0,_ZN7testing8internalL28FormatTimeInMillisAsDurationEl
FNDA:0,_ZN7testing8internalL32FormatEpochTimeInMillisAsRFC3339El
FNDA:0,_ZN7testing8internal25JsonUnitTestResultPrinter13OutputJsonKeyEPSoRKNSt7__cxx1112basic_stringIcSt11char_traitsIcESaIcEEESA_SA_SA_b
FNDA:0,_ZN7testing8internal25JsonUnitTestResultPrinter13OutputJsonKeyEPSoRKNSt7__cxx1112basic_stringIcSt11char_traitsIcESaIcEEESA_iSA_b
FNDA:0,_ZN7testing8internal25JsonUnitTestResultPrinter32OutputJsonTestSuiteForTestResultEPSoRKNS_10TestResultE
FNDA:0,_ZN7testing8internal25JsonUnitTestResultPrinter31OutputJsonTestCaseForTestResultEPSoRKNS_10TestResultE
FNDA:0,_ZN7testing8internal25JsonUnitTestResultPrinter18OutputJsonTestInfoEPSoPKcRKNS_8TestInfoE
FNDA:0,_ZN7testing8internal25JsonUnitTestResultPrinter20OutputJsonTestResultEPSoRKNS_10TestResultE
FNDA:0,_ZN7testing8internal12AssertHelperC2ENS_14TestPartResult4TypeEPKciS5_
FNDA:0,_ZN7testing8internal12AssertHelperD2Ev
FNDA:0,_ZN7testing8internal25JsonUnitTestResultPrinter18PrintJsonTestSuiteEPSoRKNS_9TestSuiteE
FNDA:0,_ZNK7testing8internal12AssertHelperaSERKNS_7MessageE
FNDA:0,_ZN7testing8internal25JsonUnitTestResultPrinter17PrintJsonUnitTestEPSoRKNS_8UnitTestE
FNDA:0,_ZN7testing8internal25JsonUnitTestResultPrinter17PrintJsonTestListEPSoRKSt6vectorIPNS_9TestSuiteESaIS5_EE
FNDA:0,_ZN7testing8internal25JsonUnitTestResultPrinter20TestPropertiesAsJsonERKNS_10TestResultERKNSt7__cxx1112basic_stringIcSt11char_traitsIcESaIcEEE
FNDA:0,_ZN7testing8internal17StreamingListener9UrlEncodeB5cxx11EPKc
FNDA:0,_ZN7testing8internal17StreamingListener12SocketWriter14MakeConnectionEv
FNDA:0,_ZN7testing8internal18OsStackTraceGetter17CurrentStackTraceB5cxx11Eii
FNDA:0,_ZN7testing8internal12_GLOBAL__N_111FailureTestC2ERKNS0_12CodeLocationENSt7__cxx1112basic_stringIcSt11char_traitsIcESaIcEEEb
FNDA:47,_ZN7testing8internal18OsStackTraceGetter16UponLeavingGTestEv
FNDA:1,_ZN7testing8internal23ScopedPrematureExitFileC2EPKc
FNDA:1,_ZN7testing8internal23ScopedPrematureExitFileD2Ev
FNDA:0,_ZN7testing8internal12_GLOBAL__N_111FailureTest8TestBodyEv
FNDA:1,_ZN7testing18TestEventListenersC2Ev
FNDA:0,_ZN7testing18TestEventListenersD2Ev
FNDA:0,_ZN7testing18TestEventListeners6AppendEPNS_17TestEventListenerE
FNDA:0,_ZN7testing18TestEventListeners7ReleaseEPNS_17TestEventListenerE
FNDA:0,_ZN7testing18TestEventListeners8repeaterEv
FNDA:1,_ZN7testing18TestEventListeners23SetDefaultResultPrinterEPNS_17TestEventListenerE
FNDA:0,_ZN7testing18TestEventListeners22SetDefaultXmlGeneratorEPNS_17TestEventListenerE
FNDA:0,_ZNK7testing18TestEventListeners22EventForwardingEnabledEv
FNDA:0,_ZN7testing18TestEventListeners23SuppressEventForwardingEb
FNDA:166,_ZN7testing8UnitTest11GetInstanceEv
FNDA:0,_ZNK7testing8UnitTest27successful_test_suite_countEv
FNDA:0,_ZNK7testing8UnitTest23failed_test_suite_countEv
FNDA:0,_ZNK7testing8UnitTest22total_test_suite_countEv
FNDA:0,_ZNK7testing8UnitTest23test_suite_to_run_countEv
FNDA:0,_ZNK7testing8UnitTest26successful_test_case_countEv
FNDA:0,_ZNK7testing8UnitTest22failed_test_case_countEv
FNDA:0,_ZNK7testing8UnitTest21total_test_case_countEv
FNDA:0,_ZNK7testing8UnitTest22test_case_to_run_countEv
FNDA:0,_ZNK7testing8UnitTest21successful_test_countEv
FNDA:0,_ZNK7testing8UnitTest18skipped_test_countEv
FNDA:0,_ZNK7testing8UnitTest17failed_test_countEv
FNDA:0,_ZNK7testing8UnitTest30reportable_disabled_test_countEv
FNDA:0,_ZNK7testing8UnitTest19disabled_test_countEv
FNDA:0,_ZNK7testing8UnitTest21reportable_test_countEv
FNDA:0,_ZN7testing8internal33GetIgnoredParameterizedTestSuitesB5cxx11Ev
FNDA:0,_ZNK7testing8UnitTest16total_test_countEv
FNDA:0,_ZNK7testing8UnitTest17test_to_run_countEv
FNDA:0,_ZNK7testing8UnitTest15start_timestampEv
FNDA:0,_ZNK7testing8UnitTest12elapsed_timeEv
FNDA:0,_ZNK7testing8UnitTest6PassedEv
FNDA:0,_ZNK7testing8UnitTest6FailedEv
FNDA:0,_ZNK7testing8UnitTest12GetTestSuiteEi
FNDA:0,_ZNK7testing8UnitTest11GetTestCaseEi
FNDA:0,_ZNK7testing8UnitTest18ad_hoc_test_resultEv
FNDA:0,_ZN7testing8UnitTest19GetMutableTestSuiteEi
FNDA:20,_ZN7testing8UnitTest16UponLeavingGTestEv
FNDA:0,_ZN7testing8internal13MarkAsIgnoredC2EPKc
FNDA:2,_ZN7testing8UnitTest22set_current_test_suiteEPNS_9TestSuiteE
FNDA:18,_ZN7testing8UnitTest21set_current_test_infoEPNS_8TestInfoE
FNDA:0,_ZN7testing8UnitTest9listenersEv
FNDA:0,_ZN7testing8UnitTest14AddEnvironmentEPNS_11EnvironmentE
FNDA:0,_ZN7testing8UnitTest17AddTestPartResultENS_14TestPartResult4TypeEPKciRKNSt7__cxx1112basic_stringIcSt11char_traitsIcESaIcEEESC_
FNDA:0,_ZN7testing8internal23InsertSyntheticTestCaseERKNSt7__cxx1112basic_stringIcSt11char_traitsIcESaIcEEENS0_12CodeLocationEb
FNDA:0,_ZN7testing8UnitTest14RecordPropertyERKNSt7__cxx1112basic_stringIcSt11char_traitsIcESaIcEEES8_
FNDA:1,_ZN7testing8UnitTest3RunEv
FNDA:0,_ZNK7testing8UnitTest20original_working_dirEv
FNDA:0,_ZNK7testing8UnitTest18current_test_suiteEv
FNDA:0,_ZNK7testing8UnitTest17current_test_caseEv
FNDA:0,_ZNK7testing8UnitTest17current_test_infoEv
FNDA:0,_ZNK7testing8UnitTest11random_seedEv
FNDA:0,_ZN7testing8UnitTest27parameterized_test_registryEv
FNDA:1,_ZN7testing8UnitTestC2Ev
FNDA:0,_ZN7testing8UnitTestD0Ev
FNDA:1,_ZN7testing8UnitTestD2Ev
FNDA:0,_ZN7testing8UnitTest14PushGTestTraceERKNS_8internal9TraceInfoE
FNDA:0,_ZN7testing8UnitTest13PopGTestTraceEv
FNDA:1,_ZN7testing8internal12UnitTestImplC2EPNS_8UnitTestE
FNDA:1,_ZN7testing8internal12UnitTestImplD0Ev
FNDA:1,_ZN7testing8internal12UnitTestImplD2Ev
FNDA:0,_ZN7testing8internal12UnitTestImpl14RecordPropertyERKNS_12TestPropertyE
FNDA:0,_ZN7testing8internal12UnitTestImpl32SuppressTestEventsIfInSubprocessEv
FNDA:1,_ZN7testing8internal12UnitTestImpl18ConfigureXmlOutputEv
FNDA:1,_ZN7testing8internal12UnitTestImpl24ConfigureStreamingOutputEv
FNDA:2,_ZN7testing8internal12UnitTestImpl19PostFlagParsingInitEv
FNDA:0,_ZZN7testing8internal23InsertSyntheticTestCaseERKNSt7__cxx1112basic_stringIcSt11char_traitsIcESaIcEEENS0_12CodeLocationEbENKUlvE_clEv
FNDA:9,_ZN7testing8internal12UnitTestImpl12GetTestSuiteERKNSt7__cxx1112basic_stringIcSt11char_traitsIcESaIcEEEPKcPFvvESD_
FNDA:0,_ZN7testing8internalL16SetUpEnvironmentEPNS_11EnvironmentE
FNDA:0,_ZN7testing8internalL19TearDownEnvironmentEPNS_11EnvironmentE
FNDA:0,_ZN7testing8internalL30AppendToTestWarningsOutputFileERKNSt7__cxx1112basic_stringIcSt11char_traitsIcESaIcEEE
FNDA:0,_ZN7testing8internal34RegisterTypeParameterizedTestSuiteEPKcNS0_12CodeLocationE
FNDA:1,_ZN7testing8internal12UnitTestImpl11RunAllTestsEv
FNDA:0,_ZN7testing8internal47RegisterTypeParameterizedTestSuiteInstantiationEPKc
FNDA:0,_ZN7testing8internal34TypeParameterizedTestSuiteRegistry17RegisterTestSuiteEPKcNS0_12CodeLocationE
FNDA:0,_ZN7testing8internal34TypeParameterizedTestSuiteRegistry21RegisterInstantiationEPKc
FNDA:1,_ZN7testing8internal30WriteToShardStatusFileIfNeededEv
FNDA:2,_ZN7testing8internal11ShouldShardEPKcS2_b
FNDA:1,_ZN7testing8internal34TypeParameterizedTestSuiteRegistry22CheckForInstantiationsEv
FNDA:4,_ZN7testing8internal17Int32FromEnvOrDieEPKci
FNDA:0,_ZN7testing8internal20ShouldRunTestOnShardEiii
FNDA:1,_ZN7testing8internal12UnitTestImpl11FilterTestsENS1_18ReactionToShardingE
FNDA:1,_ZNK7testing8internal12UnitTestImpl30ShouldWarnIfNoTestsMatchFilterEv
FNDA:0,_ZN7testing8internalL14PrintOnOneLineEPKci
FNDA:0,_ZN7testing8internal12UnitTestImpl23ListTestsMatchingFilterEv
FNDA:0,_ZN7testing8internal12UnitTestImpl25set_os_stack_trace_getterEPNS0_27OsStackTraceGetterInterfaceE
FNDA:0,_ZN7testing8internal12UnitTestImpl21os_stack_trace_getterEv
FNDA:0,_ZN7testing8internal12UnitTestImpl19current_test_resultEv
FNDA:0,_ZN7testing8internal12UnitTestImpl12ShuffleTestsEv
FNDA:1,_ZN7testing8internal12UnitTestImpl14UnshuffleTestsEv
FNDA:0,_ZN7testing8internal31GetCurrentOsStackTraceExceptTopB5cxx11Ei
FNDA:0,_ZZN7testing8internal34TypeParameterizedTestSuiteRegistry22CheckForInstantiationsEvENKUlvE_clEv
FNDA:18,_ZN7testing8internal6IsTrueEb
FNDA:5,_ZN7testing8internal10AlwaysTrueEv
FNDA:0,_ZN7testing8internal10SkipPrefixEPKcPS2_
FNDA:0,_ZN7testing8internalL14ParseFlagValueEPKcS2_b
FNDA:0,_ZN7testing8internalL9ParseFlagEPKcS2_Pb
FNDA:0,_ZN7testing8internal9ParseFlagEPKcS2_Pi
FNDA:0,_ZN7testing8internal8GetArgvsB5cxx11Ev
FNDA:0,_ZN7testing8internalL9ParseFlagINSt7__cxx1112basic_stringIcSt11char_traitsIcESaIcEEEEEbPKcS9_PT_
FNDA:0,_ZN7testing8internalL23HasGoogleTestFlagPrefixEPKc
FNDA:0,_ZN7testing8internalL17PrintColorEncodedEPKc
FNDA:0,_ZN7testing8internal24GetCurrentExecutableNameEv
FNDA:0,_ZN7testing8internalL19ParseGoogleTestFlagEPKc
FNDA:0,_ZN7testing8internalL17LoadFlagsFromFileERKNSt7__cxx1112basic_stringIcSt11char_traitsIcESaIcEEE
FNDA:1,_ZN7testing8internal28ParseGoogleTestFlagsOnlyImplIcEEvPiPPT_
FNDA:0,_ZN7testing8internal28ParseGoogleTestFlagsOnlyImplIwEEvPiPPT_
FNDA:0,_ZN7testing8internal24ParseGoogleTestFlagsOnlyEPiPPc
FNDA:1,_ZN7testing8internal15UnitTestOptions15GetOutputFormatB5cxx11Ev
FNDA:0,_ZN7testing8internal24ParseGoogleTestFlagsOnlyEPiPPw
FNDA:1,_ZN7testing8internal18InitGoogleTestImplIcEEvPiPPT_
FNDA:0,_ZN7testing8internal18InitGoogleTestImplIwEEvPiPPT_
FNDA:1,_ZN7testing14InitGoogleTestEPiPPc
FNDA:0,_ZN7testing14InitGoogleTestEPiPPw
FNDA:0,_ZN7testing14InitGoogleTestEv
FNDA:0,_ZN7testingL13GetDirFromEnvESt16initializer_listIPKcES2_c
FNDA:0,_ZN7testing7TempDirB5cxx11Ev
FNDA:0,_ZN7testing8internal15UnitTestOptions27GetAbsolutePathToOutputFileB5cxx11Ev
FNDA:0,_ZN7testingL29GetCurrentExecutableDirectoryEv
FNDA:0,_ZN7testing6SrcDirB5cxx11Ev
FNDA:0,_ZN7testing11ScopedTrace9PushTraceEPKciNSt7__cxx1112basic_stringIcSt11char_traitsIcESaIcEEE
FNDA:0,_ZN7testing11ScopedTraceD2Ev
FNDA:48,_ZN7testing8internalL20PatternMatchesStringERKNSt7__cxx1112basic_stringIcSt11char_traitsIcESaIcEEEPKcSA_
FNDA:6,_ZN7testing8internal12_GLOBAL__N_113IsGlobPatternERKNSt7__cxx1112basic_stringIcSt11char_traitsIcESaIcEEE
FNDA:4,_ZN7testing8internal12_GLOBAL__N_114UnitTestFilterC2ERKNSt7__cxx1112basic_stringIcSt11char_traitsIcESaIcEEE
FNDA:39,_ZNK7testing8internal12_GLOBAL__N_114UnitTestFilter11MatchesNameERKNSt7__cxx1112basic_stringIcSt11char_traitsIcESaIcEEE
FNDA:2,_ZN7testing8internal12_GLOBAL__N_133PositiveAndNegativeUnitTestFilterC2ERKNSt7__cxx1112basic_stringIcSt11char_traitsIcESaIcEEE
FNDA:10,_ZNK7testing8internal12_GLOBAL__N_133PositiveAndNegativeUnitTestFilter11MatchesTestERKNSt7__cxx1112basic_stringIcSt11char_traitsIcESaIcEEESA_
FNDA:10,_ZNK7testing8internal12_GLOBAL__N_133PositiveAndNegativeUnitTestFilter11MatchesNameERKNSt7__cxx1112basic_stringIcSt11char_traitsIcESaIcEEE
FNDA:0,_ZN7testing8internal15UnitTestOptions13MatchesFilterERKNSt7__cxx1112basic_stringIcSt11char_traitsIcESaIcEEEPKc
FNDA:0,_ZN7testing8internal15UnitTestOptions17FilterMatchesTestERKNSt7__cxx1112basic_stringIcSt11char_traitsIcESaIcEEES9_
FNDA:0,_ZN7testing32ScopedFakeTestPartResultReporterC2EPNS_19TestPartResultArrayE
FNDA:0,_ZN7testing32ScopedFakeTestPartResultReporterC2ENS0_13InterceptModeEPNS_19TestPartResultArrayE
FNDA:0,_ZN7testing32ScopedFakeTestPartResultReporter4InitEv
FNDA:0,_ZN7testing32ScopedFakeTestPartResultReporterD0Ev
FNDA:0,_ZN7testing32ScopedFakeTestPartResultReporterD2Ev
FNDA:0,_ZN7testing32ScopedFakeTestPartResultReporter20ReportTestPartResultERKNS_14TestPartResultE
FNDA:9,_ZN7testing8internal13GetTestTypeIdEv
FNF:392
FNH:117
DA:219,0
DA:220,0
DA:221,0
DA:222,0
DA:224,0
DA:225,0
DA:227,0
DA:228,0
DA:230,0
DA:231,0
DA:249,1
DA:250,1
DA:251,1
DA:252,1
DA:253,0
DA:416,0
DA:419,0
DA:421,0
DA:422,0
DA:423,0
DA:424,0
DA:429,0
DA:435,2
DA:440,7
DA:442,7
DA:443,14
DA:444,7
DA:446,7
DA:450,0
DA:451,0
DA:455,2
DA:456,4
DA:461,2
DA:462,2
DA:469,0
DA:473,0
DA:479,0
DA:480,0
DA:481,0
DA:483,0
DA:486,0
DA:487,0
DA:488,0
DA:489,0
DA:490,0
DA:491,0
DA:492,0
DA:495,0
DA:510,0
DA:512,0
DA:513,0
DA:514,0
DA:516,0
DA:517,0
DA:518,0
DA:519,0
DA:521,0
DA:523,0
DA:533,0
DA:534,1
DA:538,0
DA:539,0
DA:540,0
DA:544,0
DA:546,0
DA:547,0
DA:549,0
DA:559,0
DA:568,0
DA:569,0
DA:570,0
DA:575,0
DA:576,0
DA:578,0
DA:579,0
DA:583,0
DA:584,0
DA:585,0
DA:587,0
DA:589,0
DA:591,0
DA:593,0
DA:595,0
DA:596,0
DA:598,0
DA:600,0
DA:602,0
DA:603,0
DA:604,0
DA:606,0
DA:608,0
DA:609,0
DA:610,0
DA:612,0
DA:613,0
DA:615,0
DA:617,1
DA:618,1
DA:619,1
DA:620,0
DA:621,0
DA:623,0
DA:624,0
DA:638,0
DA:639,0
DA:641,0
DA:642,0
DA:643,0
DA:648,0
DA:649,0
DA:650,0
DA:652,0
DA:653,1
DA:658,0
DA:665,2
DA:672,0
DA:673,0
DA:675,0
DA:676,0
DA:680,0
DA:684,0
DA:685,0
DA:691,1
DA:692,1
DA:693,1
DA:694,1
DA:695,1
DA:696,1
DA:698,2
DA:699,1
DA:704,0
DA:705,0
DA:706,0
DA:708,0
DA:709,0
DA:711,0
DA:712,0
DA:713,0
DA:714,0
DA:715,0
DA:716,0
DA:717,0
DA:719,0
DA:720,0
DA:721,0
DA:722,0
DA:723,0
DA:725,0
DA:727,0
DA:728,0
DA:729,0
DA:730,0
DA:731,0
DA:740,48
DA:742,48
DA:743,48
DA:744,48
DA:746,48
DA:747,48
DA:749,1526
DA:750,1516
DA:751,1143
DA:752,389
DA:753,389
DA:754,0
DA:755,0
DA:756,0
DA:759,0
DA:760,0
DA:761,0
DA:762,0
DA:763,0
DA:766,754
DA:770,754
DA:771,754
DA:772,754
DA:773,754
DA:777,762
DA:778,724
DA:779,724
DA:780,724
DA:789,6
DA:790,6
DA:791,9
DA:794,0
DA:796,2
DA:799,4
DA:801,4
DA:802,4
DA:803,4
DA:806,4
DA:807,4
DA:808,4
DA:809,4
DA:810,4
DA:812,4
DA:813,8
DA:817,39
DA:818,39
DA:819,39
DA:820,0
DA:821,48
DA:823,48
DA:824,39
DA:839,2
DA:840,2
DA:843,2
DA:844,2
DA:846,2
DA:847,0
DA:848,0
DA:853,0
DA:854,0
DA:855,0
DA:856,0
DA:857,0
DA:858,0
DA:862,6
DA:864,4
DA:869,10
DA:871,10
DA:876,10
DA:877,20
DA:878,10
DA:887,0
DA:889,0
DA:894,0
DA:898,0
DA:899,0
DA:944,0
DA:945,0
DA:946,0
DA:947,0
DA:948,0
DA:953,0
DA:954,0
DA:955,0
DA:956,0
DA:957,0
DA:959,0
DA:960,0
DA:961,0
DA:962,0
DA:963,0
DA:965,0
DA:966,0
DA:968,0
DA:972,0
DA:973,0
DA:974,0
DA:975,0
DA:977,0
DA:979,0
DA:983,0
DA:985,0
DA:986,0
DA:999,0
DA:1008,0
DA:1014,0
DA:1016,0
DA:1017,0
DA:1018,0
DA:1019,0
DA:1020,0
DA:1021,0
DA:1022,0
DA:1024,0
DA:1027,0
DA:1028,0
DA:1029,0
DA:1030,0
DA:1031,0
DA:1034,0
DA:1035,0
DA:1036,0
DA:1037,0
DA:1038,0
DA:1041,0
DA:1042,0
DA:1047,0
DA:1049,0
DA:1050,0
DA:1056,0
DA:1057,0
DA:1058,0
DA:1060,0
DA:1061,0
DA:1062,0
DA:1064,0
DA:1066,0
DA:1067,0
DA:1068,0
DA:1070,0
DA:1071,0
DA:1072,0
DA:1074,0
DA:1076,0
DA:1077,0
DA:1081,0
DA:1082,0
DA:1083,0
DA:1084,0
DA:1087,0
DA:1089,0
DA:1090,0
DA:1091,0
DA:1095,0
DA:1096,0
DA:1100,0
DA:1102,0
DA:1103,0
DA:1106,0
DA:1107,0
DA:1111,2
DA:1112,4
DA:1116,0
DA:1117,0
DA:1122,2
DA:1123,4
DA:1127,0
DA:1128,1
DA:1132,0
DA:1133,1
DA:1137,0
DA:1138,0
DA:1142,0
DA:1143,1
DA:1144,0
DA:1148,0
DA:1149,0
DA:1153,0
DA:1154,0
DA:1158,0
DA:1159,0
DA:1163,0
DA:1164,2
DA:1177,0
DA:1178,0
DA:1182,0
DA:1188,11
DA:1191,11
DA:1192,11
DA:1193,11
DA:1211,0
DA:1212,0
DA:1213,12
DA:1214,11
DA:1215,0
DA:1261,0
DA:1262,0
DA:1264,0
DA:1266,0
DA:1273,0
DA:1275,0
DA:1276,0
DA:1277,0
DA:1278,0
DA:1280,0
DA:1281,0
DA:1284,0
DA:1288,6
DA:1290,6
DA:1291,6
DA:1292,6
DA:1293,8
DA:1294,8
DA:1295,12
DA:1296,6
DA:1298,4
DA:1299,2
DA:1302,6
DA:1303,12
DA:1312,63
DA:1315,63
DA:1316,63
DA:1320,0
DA:1321,0
DA:1323,0
DA:1324,0
DA:1330,0
DA:1331,0
DA:1332,0
DA:1338,0
DA:1339,63
DA:1345,0
DA:1347,0
DA:1348,0
DA:1349,0
DA:1350,0
DA:1353,0
DA:1354,0
DA:1355,0
DA:1358,0
DA:1359,0
DA:1360,0
DA:1363,0
DA:1364,0
DA:1365,0
DA:1367,0
DA:1368,0
DA:1369,0
DA:1372,0
DA:1373,0
DA:1374,0
DA:1375,0
DA:1376,0
DA:1377,0
DA:1378,0
DA:1379,0
DA:1380,0
DA:1384,0
DA:1385,0
DA:1391,0
DA:1392,0
DA:1393,0
DA:1394,0
DA:1395,0
DA:1396,0
DA:1398,0
DA:1399,0
DA:1400,0
DA:1405,0
DA:1407,0
DA:1408,0
DA:1409,0
DA:1410,0
DA:1411,0
DA:1421,0
DA:1424,0
DA:1425,0
DA:1426,0
DA:1427,0
DA:1428,0
DA:1430,0
DA:1431,0
DA:1433,0
DA:1434,0
DA:1435,0
DA:1445,0
DA:1446,0
DA:1447,0
DA:1448,0
DA:1449,0
DA:1450,0
DA:1452,0
DA:1453,0
DA:1454,0
DA:1455,0
DA:1456,0
DA:1457,0
DA:1458,0
DA:1459,0
DA:1460,0
DA:1461,0
DA:1462,0
DA:1463,0
DA:1464,0
DA:1465,0
DA:1466,0
DA:1468,0
DA:1470,0
DA:1471,0
DA:1472,0
DA:1473,0
DA:1474,0
DA:1475,0
DA:1476,0
DA:1478,0
DA:1480,0
DA:1483,0
DA:1484,0
DA:1485,0
DA:1486,0
DA:1492,0
DA:1493,0
DA:1494,0
DA:1495,0
DA:1497,0
DA:1498,0
DA:1500,0
DA:1501,0
DA:1503,0
DA:1504,0
DA:1520,0
DA:1523,0
DA:1525,0
DA:1526,0
DA:1527,0
DA:1529,0
DA:1530,0
DA:1531,0
DA:1532,0
DA:1536,0
DA:1537,0
DA:1538,0
DA:1539,0
DA:1545,0
DA:1546,0
DA:1548,0
DA:1549,0
DA:1550,0
DA:1551,0
DA:1557,0
DA:1559,0
DA:1561,0
DA:1562,0
DA:1564,0
DA:1565,0
DA:1569,0
DA:1570,0
DA:1573,0
DA:1578,0
DA:1579,0
DA:1580,0
DA:1581,0
DA:1590,0
DA:1591,0
DA:1592,0
DA:1593,0
DA:1597,0
DA:1598,0
DA:1599,0
DA:1600,0
DA:1601,0
DA:1602,0
DA:1603,0
DA:1606,0
DA:1609,0
DA:1610,0
DA:1611,0
DA:1630,0
DA:1634,0
DA:1635,0
DA:1636,0
DA:1637,0
DA:1638,0
DA:1640,0
DA:1641,0
DA:1642,0
DA:1645,0
DA:1646,0
DA:1649,0
DA:1650,0
DA:1651,0
DA:1652,0
DA:1653,0
DA:1654,0
DA:1656,0
DA:1658,0
DA:1659,0
DA:1662,0
DA:1665,0
DA:1666,0
DA:1667,0
DA:1668,0
DA:1669,0
DA:1670,0
DA:1671,0
DA:1672,0
DA:1678,0
DA:1687,0
DA:1688,0
DA:1689,0
DA:1690,0
DA:1693,0
DA:1694,0
DA:1697,0
DA:1699,0
DA:1700,0
DA:1707,0
DA:1709,0
DA:1710,0
DA:1711,0
DA:1712,0
DA:1713,0
DA:1714,0
DA:1716,0
DA:1717,0
DA:1719,0
DA:1721,0
DA:1722,0
DA:1723,0
DA:1724,0
DA:1725,0
DA:1726,0
DA:1731,0
DA:1734,0
DA:1739,0
DA:1740,0
DA:1748,0
DA:1749,0
DA:1750,0
DA:1752,0
DA:1753,0
DA:1754,0
DA:1757,0
DA:1758,0
DA:1759,0
DA:1760,0
DA:1766,0
DA:1768,0
DA:1773,0
DA:1775,0
DA:1781,0
DA:1784,0
DA:1785,0
DA:1788,0
DA:1789,0
DA:1793,0
DA:1796,0
DA:1797,0
DA:1800,0
DA:1801,0
DA:1805,0
DA:1808,0
DA:1809,0
DA:1811,0
DA:1812,0
DA:1813,0
DA:1818,0
DA:1821,0
DA:1822,0
DA:1824,0
DA:1825,0
DA:1826,0
DA:1840,0
DA:1841,0
DA:1843,0
DA:1846,0
DA:1847,0
DA:1849,0
DA:1854,0
DA:1855,0
DA:1863,0
DA:1868,0
DA:1871,0
DA:1872,0
DA:1874,0
DA:1875,0
DA:1876,0
DA:1877,0
DA:1878,0
DA:1887,0
DA:1889,0
DA:1892,0
DA:1894,0
DA:1897,0
DA:1900,0
DA:1903,0
DA:1906,0
DA:1909,0
DA:1912,0
DA:1915,0
DA:1919,0
DA:1923,0
DA:1926,0
DA:1929,0
DA:1933,0
DA:2029,0
DA:2030,0
DA:2031,0
DA:2032,0
DA:2041,0
DA:2042,0
DA:2043,0
DA:2046,0
DA:2047,0
DA:2048,0
DA:2049,0
DA:2050,0
DA:2051,0
DA:2052,0
DA:2053,0
DA:2054,0
DA:2055,0
DA:2056,0
DA:2057,0
DA:2058,0
DA:2060,0
DA:2061,0
DA:2062,0
DA:2063,0
DA:2064,0
DA:2066,0
DA:2108,0
DA:2109,0
DA:2111,0
DA:2112,0
DA:2113,0
DA:2115,0
DA:2117,0
DA:2122,0
DA:2125,0
DA:2127,0
DA:2128,0
DA:2132,0
DA:2133,0
DA:2135,0
DA:2144,0
DA:2145,0
DA:2147,0
DA:2149,0
DA:2153,0
DA:2156,0
DA:2157,0
DA:2160,0
DA:2161,0
DA:2165,0
DA:2168,0
DA:2169,0
DA:2172,0
DA:2173,0
DA:2174,0
DA:2183,0
DA:2184,0
DA:2185,0
DA:2186,1
DA:2201,0
DA:2203,0
DA:2205,0
DA:2210,0
DA:2225,0
DA:2227,0
DA:2228,0
DA:2229,0
DA:2230,0
DA:2231,0
DA:2235,0
DA:2236,0
DA:2240,0
DA:2241,0
DA:2242,0
DA:2243,0
DA:2244,0
DA:2247,0
DA:2248,0
DA:2249,0
DA:2250,0
DA:2251,0
DA:2254,0
DA:2255,0
DA:2259,0
DA:2260,0
DA:2261,0
DA:2262,0
DA:2263,0
DA:2264,0
DA:2268,63
DA:2269,63
DA:2270,63
DA:2271,63
DA:2273,63
DA:2274,63
DA:2275,996
DA:2276,933
DA:2277,0
DA:2279,933
DA:2283,126
DA:2284,63
DA:2287,0
DA:2290,0
DA:2291,0
DA:2292,0
DA:2294,0
DA:2295,0
DA:2297,0
DA:2298,0
DA:2305,0
DA:2306,11
DA:2309,11
DA:2314,0
DA:2315,0
DA:2316,0
DA:2322,0
DA:2323,0
DA:2324,0
DA:2328,0
DA:2331,0
DA:2332,0
DA:2333,0
DA:2338,0
DA:2340,0
DA:2341,0
DA:2343,0
DA:2344,0
DA:2345,0
DA:2346,0
DA:2347,0
DA:2348,0
DA:2349,0
DA:2351,0
DA:2352,0
DA:2378,0
DA:2379,0
DA:2382,0
DA:2384,0
DA:2385,0
DA:2386,0
DA:2387,0
DA:2388,0
DA:2389,0
DA:2391,0
DA:2394,0
DA:2400,0
DA:2402,0
DA:2403,0
DA:2404,0
DA:2405,0
DA:2406,0
DA:2407,0
DA:2409,0
DA:2412,0
DA:2416,0
DA:2417,0
DA:2418,0
DA:2419,0
DA:2420,0
DA:2422,0
DA:2423,0
DA:2425,0
DA:2427,0
DA:2428,0
DA:2430,0
DA:2433,0
DA:2434,0
DA:2435,0
DA:2436,0
DA:2437,0
DA:2438,0
DA:2445,0
DA:2447,0
DA:2448,0
DA:2452,10
DA:2453,10
DA:2454,10
DA:2455,10
DA:2456,10
DA:2457,10
DA:2460,0
DA:2461,0
DA:2465,47
DA:2466,141
DA:2470,97
DA:2471,0
DA:2472,97
DA:2478,0
DA:2479,0
DA:2483,19
DA:2484,38
DA:2488,0
DA:2489,0
DA:2493,0
DA:2494,0
DA:2499,0
DA:2500,97
DA:2504,0
DA:2505,0
DA:2513,9
DA:2518,9
DA:2523,9
DA:2528,9
DA:2531,0
DA:2532,0
DA:2533,0
DA:2537,0
DA:2541,0
DA:2547,0
DA:2556,9
DA:2557,9
DA:2558,9
DA:2561,9
DA:2562,9
DA:2563,9
DA:2566,9
DA:2567,9
DA:2568,9
DA:2570,9
DA:2572,0
DA:2574,0
DA:2576,0
DA:2583,0
DA:2585,0
DA:2588,0
DA:2589,0
DA:2590,0
DA:2591,0
DA:2592,0
DA:2593,0
DA:2594,0
DA:2595,0
DA:2596,0
DA:2600,0
DA:2601,0
DA:2602,0
DA:2603,0
DA:2604,0
DA:2605,0
DA:2606,0
DA:2607,0
DA:2608,0
DA:2609,0
DA:2611,0
DA:2622,0
DA:2624,0
DA:2625,0
DA:2626,0
DA:2628,0
DA:2630,0
DA:2632,0
DA:2633,0
DA:2638,0
DA:2639,0
DA:2640,0
DA:2653,48
DA:2664,48
DA:2672,48
DA:2697,48
DA:2700,48
DA:2701,0
DA:2703,0
DA:2707,0
DA:2708,0
DA:2709,0
DA:2711,0
DA:2712,0
DA:2713,0
DA:2717,0
DA:2722,0
DA:2729,9
DA:2730,9
DA:2732,9
DA:2733,18
DA:2734,9
DA:2737,9
DA:2738,18
DA:2739,9
DA:2746,18
DA:2747,9
DA:2752,19
DA:2753,38
DA:2757,0
DA:2758,0
DA:2760,0
DA:2764,19
DA:2765,57
DA:2772,9
DA:2776,9
DA:2777,9
DA:2778,9
DA:2779,9
DA:2780,9
DA:2781,9
DA:2782,9
DA:2783,9
DA:2784,9
DA:2785,9
DA:2786,9
DA:2787,9
DA:2788,9
DA:2791,9
DA:2813,9
DA:2818,9
DA:2820,9
DA:2821,9
DA:2822,9
DA:2825,0
DA:2827,0
DA:2828,0
DA:2829,0
DA:2830,0
DA:2831,0
DA:2832,0
DA:2833,0
DA:2834,0
DA:2835,0
DA:2836,0
DA:2838,0
DA:2839,0
DA:2840,0
DA:2841,0
DA:2846,1
DA:2847,1
DA:2848,1
DA:2849,1
DA:2850,1
DA:2852,1
DA:2858,9
DA:2859,9
DA:2860,9
DA:2861,0
DA:2862,0
DA:2866,9
DA:2869,9
DA:2870,9
DA:2871,9
DA:2872,9
DA:2875,18
DA:2876,9
DA:2882,9
DA:2885,9
DA:2888,0
DA:2890,9
DA:2891,9
DA:2895,9
DA:2898,9
DA:2902,9
DA:2906,0
DA:2907,0
DA:2909,0
DA:2911,0
DA:2914,0
DA:2916,0
DA:2917,0
DA:2918,0
DA:2919,0
DA:2920,0
DA:2923,0
DA:2924,0
DA:2925,0
DA:2930,1
DA:2931,2
DA:2935,1
DA:2936,2
DA:2940,2
DA:2941,4
DA:2945,1
DA:2946,2
DA:2950,0
DA:2951,0
DA:2955,0
DA:2956,0
DA:2960,4
DA:2961,8
DA:2965,0
DA:2966,0
DA:2978,1
DA:2980,1
DA:2981,2
DA:2982,1
DA:2983,1
DA:2984,1
DA:2985,1
DA:2986,1
DA:2987,2
DA:2990,3
DA:2992,1
DA:2993,2
DA:2997,0
DA:2998,0
DA:2999,0
DA:3004,0
DA:3005,0
DA:3006,9
DA:3011,9
DA:3012,9
DA:3013,9
DA:3014,9
DA:3017,1
DA:3018,1
DA:3020,1
DA:3022,1
DA:3034,2
DA:3035,0
DA:3036,18
DA:3037,0
DA:3040,0
DA:3044,1
DA:3047,1
DA:3050,1
DA:3051,1
DA:3054,1
DA:3055,1
DA:3057,1
DA:3058,1
DA:3059,10
DA:3060,9
DA:3061,0
DA:3063,18
DA:3065,9
DA:3066,0
DA:3067,0
DA:3068,0
DA:3073,1
DA:3075,1
DA:3076,1
DA:3080,1
DA:3083,1
DA:3086,1
DA:3090,0
DA:3091,0
DA:3093,0
DA:3095,0
DA:3098,0
DA:3101,0
DA:3104,0
DA:3105,0
DA:3109,0
DA:3112,0
DA:3115,0
DA:3119,1
DA:3120,1
DA:3121,2
DA:3122,1
DA:3125,0
DA:3126,0
DA:3127,0
DA:3130,0
DA:3131,10
DA:3132,0
DA:3134,0
DA:3141,7
DA:3143,21
DA:3144,21
DA:3148,0
DA:3149,0
DA:3153,0
DA:3154,0
DA:3161,0
DA:3162,0
DA:3165,0
DA:3166,0
DA:3168,0
DA:3169,0
DA:3173,0
DA:3175,0
DA:3176,0
DA:3186,0
DA:3188,0
DA:3190,0
DA:3191,0
DA:3192,0
DA:3193,0
DA:3194,0
DA:3198,0
DA:3199,0
DA:3200,0
DA:3201,0
DA:3213,0
DA:3269,0
DA:3270,0
DA:3273,0
DA:3274,0
DA:3275,0
DA:3276,0
DA:3277,0
DA:3278,0
DA:3286,1
DA:3287,1
DA:3288,1
DA:3290,1
DA:3297,1
DA:3298,1
DA:3299,1
DA:3300,0
DA:3301,0
DA:3302,0
DA:3303,0
DA:3304,0
DA:3305,0
DA:3306,0
DA:3307,0
DA:3308,1
DA:3309,1
DA:3313,0
DA:3314,0
DA:3315,0
DA:3316,1
DA:3320,1
DA:3328,25
DA:3329,25
DA:3330,25
DA:3332,25
DA:3335,25
DA:3337,25
DA:3339,0
DA:3340,25
DA:3341,25
DA:3342,25
DA:3368,0
DA:3369,0
DA:3370,0
DA:3372,0
DA:3380,0
DA:3381,0
DA:3382,0
DA:3384,0
DA:3385,0
DA:3386,0
DA:3387,0
DA:3388,0
DA:3390,0
DA:3391,0
DA:3394,0
DA:3401,1
DA:3402,0
DA:3403,18
DA:3407,1
DA:3410,1
DA:3429,1
DA:3431,1
DA:3440,1
DA:3442,1
DA:3443,0
DA:3445,1
DA:3446,1
DA:3450,1
DA:3451,0
DA:3455,1
DA:3456,0
DA:3457,0
DA:3462,1
DA:3463,0
DA:3468,1
DA:3469,1
DA:3470,2
DA:3471,1
DA:3472,1
DA:3473,1
DA:3475,1
DA:3477,1
DA:3478,1
DA:3479,1
DA:3480,1
DA:3483,1
DA:3484,1
DA:3485,1
DA:3486,1
DA:3487,1
DA:3488,1
DA:3489,1
DA:3491,0
DA:3493,1
DA:3494,1
DA:3511,9
DA:3512,9
DA:3513,9
DA:3514,9
DA:3515,9
DA:3516,9
DA:3518,0
DA:3519,0
DA:3520,0
DA:3521,0
DA:3522,0
DA:3523,0
DA:3526,0
DA:3528,0
DA:3530,0
DA:3531,0
DA:3532,0
DA:3535,0
DA:3536,0
DA:3540,9
DA:3541,9
DA:3542,9
DA:3543,0
DA:3544,0
DA:3546,0
DA:3548,9
DA:3549,9
DA:3551,9
DA:3552,9
DA:3553,18
DA:3556,0
DA:3558,9
DA:3559,9
DA:3562,1
DA:3563,1
DA:3565,1
DA:3566,1
DA:3567,1
DA:3568,1
DA:3569,1
DA:3570,1
DA:3571,1
DA:3585,1
DA:3587,1
DA:3588,1
DA:3589,1
DA:3590,1
DA:3593,0
DA:3594,0
DA:3595,0
DA:3596,0
DA:3598,0
DA:3599,0
DA:3600,0
DA:3601,0
DA:3603,0
DA:3604,0
DA:3605,0
DA:3606,0
DA:3608,0
DA:3609,0
DA:3610,0
DA:3611,0
DA:3614,0
DA:3616,0
DA:3620,0
DA:3622,0
DA:3623,0
DA:3624,0
DA:3625,0
DA:3626,0
DA:3628,0
DA:3629,0
DA:3630,0
DA:3631,0
DA:3634,0
DA:3635,0
DA:3638,0
DA:3641,0
DA:3642,0
DA:3643,0
DA:3644,0
DA:3647,0
DA:3648,0
DA:3649,0
DA:3650,0
DA:3652,0
DA:3653,0
DA:3654,0
DA:3655,0
DA:3657,0
DA:3658,0
DA:3659,0
DA:3664,1
DA:3666,1
DA:3667,1
DA:3668,2
DA:3669,1
DA:3670,1
DA:3671,1
DA:3672,2
DA:3674,1
DA:3675,1
DA:3676,1
DA:3678,2
DA:3679,1
DA:3680,0
DA:3681,0
DA:3682,0
DA:3685,2
DA:3686,0
DA:3687,0
DA:3690,2
DA:3691,0
DA:3692,0
DA:3693,0
DA:3695,0
DA:3699,1
DA:3700,1
DA:3709,0
DA:3710,0
DA:3711,0
DA:3715,0
DA:3716,0
DA:3717,0
DA:3718,0
DA:3719,0
DA:3721,0
DA:3726,0
DA:3727,0
DA:3732,0
DA:3737,0
DA:3738,0
DA:3740,0
DA:3744,0
DA:3746,0
DA:3748,0
DA:3749,0
DA:3750,0
DA:3753,0
DA:3754,0
DA:3758,0
DA:3759,0
DA:3760,0
DA:3761,0
DA:3762,0
DA:3764,0
DA:3765,0
DA:3766,0
DA:3769,0
DA:3771,0
DA:3773,0
DA:3775,0
DA:3777,0
DA:3778,0
DA:3779,0
DA:3780,0
DA:3781,0
DA:3782,0
DA:3783,0
DA:3785,0
DA:3786,0
DA:3787,0
DA:3789,0
DA:3790,0
DA:3791,0
DA:3792,0
DA:3795,0
DA:3796,0
DA:3797,0
DA:3798,0
DA:3800,0
DA:3804,0
DA:3805,0
DA:3814,1
DA:3821,0
DA:3822,0
DA:3858,2
DA:3859,1
DA:3860,2
DA:3862,0
DA:3863,0
DA:3864,0
DA:3866,1
DA:3867,1
DA:3868,0
DA:3869,0
DA:3870,0
DA:3898,4
DA:3899,4
DA:3902,4
DA:3904,4
DA:3905,36
DA:3906,0
DA:3907,0
DA:3908,4
DA:3909,3
DA:3910,3
DA:3911,27
DA:3914,3
DA:3916,3
DA:3917,3
DA:3922,1
DA:3924,1
DA:3925,2
DA:3926,1
DA:3929,1
DA:3931,1
DA:3933,1
DA:3934,2
DA:3935,1
DA:3938,1
DA:3944,0
DA:3958,0
DA:3959,0
DA:3964,0
DA:3965,0
DA:3978,0
DA:3979,0
DA:4040,0
DA:4041,0
DA:4042,0
DA:4043,0
DA:4045,0
DA:4048,0
DA:4050,0
DA:4051,0
DA:4052,0
DA:4053,0
DA:4054,0
DA:4055,0
DA:4057,0
DA:4059,0
DA:4060,0
DA:4061,0
DA:4062,0
DA:4063,0
DA:4064,0
DA:4076,0
DA:4078,0
DA:4080,0
DA:4081,0
DA:4082,0
DA:4083,0
DA:4084,0
DA:4086,0
DA:4087,0
DA:4089,0
DA:4090,0
DA:4092,0
DA:4093,0
DA:4094,0
DA:4096,0
DA:4098,0
DA:4099,0
DA:4100,0
DA:4102,0
DA:4104,0
DA:4105,0
DA:4106,0
DA:4107,0
DA:4108,0
DA:4109,0
DA:4111,0
DA:4117,0
DA:4118,0
DA:4123,0
DA:4125,0
DA:4126,0
DA:4127,0
DA:4128,0
DA:4129,0
DA:4131,0
DA:4132,0
DA:4151,0
DA:4152,0
DA:4156,0
DA:4158,0
DA:4159,0
DA:4160,0
DA:4161,0
DA:4162,0
DA:4164,0
DA:4179,0
DA:4185,0
DA:4186,0
DA:4187,0
DA:4188,0
DA:4190,0
DA:4191,0
DA:4192,0
DA:4193,0
DA:4194,0
DA:4195,0
DA:4196,0
DA:4200,0
DA:4202,0
DA:4203,0
DA:4204,0
DA:4205,0
DA:4206,0
DA:4207,0
DA:4208,0
DA:4209,0
DA:4210,0
DA:4212,0
DA:4213,0
DA:4215,0
DA:4216,0
DA:4217,0
DA:4219,0
DA:4222,0
DA:4223,0
DA:4225,0
DA:4228,0
DA:4230,0
DA:4231,0
DA:4234,0
DA:4237,0
DA:4238,0
DA:4239,0
DA:4240,0
DA:4241,0
DA:4242,0
DA:4243,0
DA:4244,0
DA:4245,0
DA:4246,0
DA:4248,0
DA:4249,0
DA:4251,0
DA:4254,0
DA:4255,0
DA:4258,0
DA:4261,0
DA:4262,0
DA:4263,0
DA:4264,0
DA:4265,0
DA:4266,0
DA:4267,0
DA:4268,0
DA:4270,0
DA:4273,0
DA:4274,0
DA:4277,0
DA:4280,0
DA:4281,0
DA:4283,0
DA:4287,0
DA:4288,0
DA:4290,0
DA:4291,0
DA:4294,0
DA:4295,0
DA:4299,0
DA:4300,0
DA:4301,0
DA:4302,0
DA:4303,0
DA:4307,0
DA:4308,0
DA:4309,0
DA:4310,0
DA:4311,0
DA:4313,0
DA:4314,0
DA:4315,0
DA:4317,0
DA:4318,0
DA:4320,0
DA:4321,0
DA:4323,0
DA:4325,0
DA:4326,0
DA:4327,0
DA:4328,0
DA:4329,0
DA:4330,0
DA:4331,0
DA:4333,0
DA:4335,0
DA:4336,0
DA:4337,0
DA:4338,0
DA:4339,0
DA:4340,0
DA:4341,0
DA:4342,0
DA:4343,0
DA:4344,0
DA:4346,0
DA:4348,0
DA:4349,0
DA:4350,0
DA:4351,0
DA:4352,0
DA:4353,0
DA:4354,0
DA:4355,0
DA:4358,0
DA:4359,0
DA:4361,0
DA:4362,0
DA:4364,0
DA:4365,0
DA:4367,0
DA:4370,0
DA:4372,0
DA:4373,0
DA:4374,0
DA:4375,0
DA:4376,0
DA:4377,0
DA:4378,0
DA:4379,0
DA:4380,0
DA:4382,0
DA:4383,0
DA:4384,0
DA:4386,0
DA:4388,0
DA:4389,0
DA:4390,0
DA:4392,0
DA:4394,0
DA:4395,0
DA:4397,0
DA:4398,0
DA:4399,0
DA:4401,0
DA:4402,0
DA:4405,0
DA:4406,0
DA:4409,0
DA:4411,0
DA:4413,0
DA:4414,0
DA:4416,0
DA:4417,0
DA:4418,0
DA:4419,0
DA:4420,0
DA:4422,0
DA:4423,0
DA:4424,0
DA:4425,0
DA:4426,0
DA:4428,0
DA:4430,0
DA:4431,0
DA:4432,0
DA:4435,0
DA:4436,0
DA:4438,0
DA:4440,0
DA:4441,0
DA:4442,0
DA:4447,0
DA:4448,0
DA:4451,0
DA:4452,0
DA:4454,0
DA:4456,0
DA:4458,0
DA:4459,0
DA:4461,0
DA:4462,0
DA:4463,0
DA:4465,0
DA:4466,0
DA:4467,0
DA:4468,0
DA:4470,0
DA:4471,0
DA:4473,0
DA:4474,0
DA:4476,0
DA:4478,0
DA:4479,0
DA:4481,0
DA:4482,0
DA:4485,0
DA:4486,0
DA:4487,0
DA:4488,0
DA:4489,0
DA:4490,0
DA:4491,0
DA:4493,0
DA:4494,0
DA:4501,0
DA:4569,0
DA:4570,0
DA:4571,0
DA:4572,0
DA:4574,0
DA:4576,0
DA:4578,0
DA:4579,0
DA:4580,0
DA:4581,0
DA:4582,0
DA:4583,0
DA:4586,0
DA:4587,0
DA:4589,0
DA:4590,0
DA:4591,0
DA:4592,0
DA:4593,0
DA:4594,0
DA:4595,0
DA:4597,0
DA:4598,0
DA:4600,0
DA:4601,0
DA:4603,0
DA:4604,0
DA:4606,0
DA:4607,0
DA:4609,0
DA:4610,0
DA:4612,0
DA:4613,0
DA:4614,0
DA:4616,0
DA:4622,0
DA:4623,0
DA:4629,0
DA:4630,0
DA:4631,0
DA:4632,0
DA:4633,0
DA:4637,0
DA:4638,0
DA:4639,0
DA:4640,0
DA:4642,0
DA:4643,0
DA:4644,0
DA:4645,0
DA:4646,0
DA:4647,0
DA:4650,0
DA:4651,0
DA:4654,0
DA:4660,0
DA:4661,0
DA:4663,0
DA:4666,0
DA:4668,0
DA:4669,0
DA:4670,0
DA:4672,0
DA:4675,0
DA:4676,0
DA:4678,0
DA:4681,0
DA:4683,0
DA:4684,0
DA:4685,0
DA:4688,0
DA:4691,0
DA:4692,0
DA:4693,0
DA:4694,0
DA:4695,0
DA:4696,0
DA:4697,0
DA:4698,0
DA:4699,0
DA:4700,0
DA:4701,0
DA:4702,0
DA:4703,0
DA:4704,0
DA:4706,0
DA:4708,0
DA:4711,0
DA:4712,0
DA:4715,0
DA:4718,0
DA:4719,0
DA:4720,0
DA:4721,0
DA:4722,0
DA:4723,0
DA:4724,0
DA:4725,0
DA:4726,0
DA:4727,0
DA:4728,0
DA:4729,0
DA:4732,0
DA:4733,0
DA:4736,0
DA:4739,0
DA:4740,0
DA:4741,0
DA:4743,0
DA:4744,0
DA:4746,0
DA:4747,0
DA:4750,0
DA:4751,0
DA:4755,0
DA:4756,0
DA:4757,0
DA:4758,0
DA:4759,0
DA:4761,0
DA:4764,0
DA:4765,0
DA:4766,0
DA:4767,0
DA:4768,0
DA:4771,0
DA:4772,0
DA:4774,0
DA:4775,0
DA:4776,0
DA:4778,0
DA:4780,0
DA:4781,0
DA:4783,0
DA:4785,0
DA:4789,0
DA:4790,0
DA:4791,0
DA:4792,0
DA:4793,0
DA:4794,0
DA:4796,0
DA:4798,0
DA:4799,0
DA:4800,0
DA:4801,0
DA:4804,0
DA:4805,0
DA:4808,0
DA:4813,0
DA:4814,0
DA:4815,0
DA:4816,0
DA:4817,0
DA:4818,0
DA:4820,0
DA:4822,0
DA:4823,0
DA:4824,0
DA:4825,0
DA:4827,0
DA:4828,0
DA:4831,0
DA:4834,0
DA:4835,0
DA:4838,0
DA:4840,0
DA:4841,0
DA:4843,0
DA:4844,0
DA:4845,0
DA:4847,0
DA:4848,0
DA:4850,0
DA:4852,0
DA:4853,0
DA:4855,0
DA:4857,0
DA:4858,0
DA:4860,0
DA:4861,0
DA:4864,0
DA:4867,0
DA:4868,0
DA:4869,0
DA:4870,0
DA:4874,0
DA:4880,0
DA:4881,0
DA:4882,0
DA:4884,0
DA:4887,0
DA:4888,0
DA:4891,0
DA:4893,0
DA:4894,0
DA:4895,0
DA:4897,0
DA:4899,0
DA:4901,0
DA:4903,0
DA:4904,0
DA:4905,0
DA:4908,0
DA:4909,0
DA:4911,0
DA:4912,0
DA:4915,0
DA:4916,0
DA:4918,0
DA:4919,0
DA:4922,0
DA:4923,0
DA:4924,0
DA:4925,0
DA:4929,0
DA:4935,0
DA:4936,0
DA:4937,0
DA:4939,0
DA:4942,0
DA:4944,0
DA:4945,0
DA:4947,0
DA:4949,0
DA:4950,0
DA:4951,0
DA:4952,0
DA:4953,0
DA:4954,0
DA:4956,0
DA:4958,0
DA:4959,0
DA:4961,0
DA:4962,0
DA:4963,0
DA:4965,0
DA:4968,0
DA:4970,0
DA:4971,0
DA:4974,0
DA:4976,0
DA:4977,0
DA:4978,0
DA:4979,0
DA:4980,0
DA:4981,0
DA:4983,0
DA:4984,0
DA:4996,0
DA:4997,0
DA:4998,0
DA:4999,0
DA:5000,0
DA:5001,0
DA:5002,0
DA:5003,0
DA:5004,0
DA:5005,0
DA:5006,0
DA:5007,0
DA:5008,0
DA:5009,0
DA:5013,0
DA:5014,0
DA:5016,0
DA:5017,0
DA:5018,0
DA:5020,0
DA:5021,0
DA:5022,0
DA:5023,0
DA:5024,0
DA:5028,0
DA:5029,0
DA:5030,0
DA:5031,0
DA:5032,0
DA:5036,0
DA:5037,0
DA:5038,0
DA:5040,0
DA:5042,0
DA:5043,0
DA:5044,0
DA:5049,0
DA:5051,0
DA:5052,0
DA:5053,0
DA:5055,0
DA:5065,0
DA:5109,0
DA:5110,0
DA:5111,0
DA:5115,47
DA:5125,47
DA:5132,1
DA:5133,2
DA:5136,1
DA:5140,0
DA:5141,0
DA:5142,0
DA:5144,1
DA:5146,1
DA:5148,1
DA:5149,0
DA:5150,0
DA:5151,0
DA:5152,0
DA:5153,0
DA:5157,1
DA:5171,1
DA:5172,1
DA:5173,1
DA:5174,1
DA:5176,1
DA:5182,0
DA:5183,0
DA:5184,0
DA:5189,0
DA:5190,0
DA:5191,0
DA:5192,0
DA:5193,0
DA:5194,0
DA:5199,10
DA:5206,1
DA:5207,1
DA:5210,1
DA:5211,1
DA:5212,1
DA:5214,1
DA:5221,0
DA:5222,0
DA:5225,0
DA:5226,0
DA:5227,0
DA:5229,0
DA:5233,0
DA:5234,0
DA:5237,0
DA:5238,0
DA:5239,0
DA:5250,166
DA:5259,166
DA:5260,166
DA:5265,0
DA:5266,0
DA:5270,0
DA:5271,0
DA:5275,0
DA:5276,0
DA:5281,0
DA:5282,2
DA:5287,0
DA:5288,0
DA:5290,0
DA:5291,0
DA:5293,0
DA:5294,0
DA:5296,0
DA:5297,0
DA:5302,0
DA:5303,1
DA:5307,0
DA:5308,1
DA:5312,0
DA:5315,0
DA:5316,1
DA:5320,0
DA:5321,0
DA:5325,0
DA:5326,0
DA:5330,0
DA:5333,2
DA:5337,0
DA:5338,0
DA:5342,0
DA:5343,1
DA:5348,1
DA:5352,0
DA:5356,0
DA:5357,0
DA:5362,0
DA:5363,0
DA:5369,0
DA:5370,0
DA:5375,0
DA:5376,0
DA:5379,20
DA:5380,20
DA:5381,20
DA:5384,2
DA:5385,2
DA:5386,2
DA:5387,2
DA:5390,18
DA:5391,18
DA:5392,18
DA:5393,18
DA:5397,10
DA:5409,0
DA:5410,0
DA:5414,0
DA:5422,0
DA:5427,0
DA:5428,0
DA:5430,0
DA:5431,0
DA:5432,0
DA:5434,0
DA:5435,0
DA:5436,0
DA:5437,0
DA:5438,0
DA:5442,0
DA:5443,0
DA:5445,0
DA:5448,0
DA:5449,0
DA:5450,0
DA:5453,0
DA:5454,0
DA:5460,0
DA:5471,0
DA:5482,0
DA:5484,0
DA:5492,0
DA:5499,0
DA:5501,0
DA:5502,0
DA:5509,1
DA:5511,1
DA:5512,1
DA:5535,1
DA:5538,1
DA:5545,1
DA:5591,1
DA:5594,1
DA:5597,1
DA:5598,1
DA:5599,1
DA:5604,0
DA:5605,0
DA:5611,0
DA:5613,0
DA:5614,0
DA:5615,0
DA:5619,0
DA:5621,0
DA:5622,0
DA:5623,0
DA:5628,0
DA:5630,0
DA:5631,0
DA:5632,0
DA:5635,0
DA:5640,0
DA:5641,0
DA:5645,1
DA:5648,1
DA:5652,0
DA:5654,0
DA:5655,0
DA:5656,0
DA:5659,0
DA:5660,0
DA:5661,0
DA:5662,0
DA:5666,1
DA:5667,1
DA:5669,1
DA:5670,1
DA:5671,1
DA:5673,1
DA:5675,1
DA:5676,1
DA:5677,1
DA:5678,1
DA:5679,1
DA:5680,1
DA:5681,1
DA:5682,1
DA:5683,1
DA:5684,1
DA:5685,1
DA:5686,1
DA:5688,1
DA:5691,2
DA:5692,1
DA:5693,1
DA:5695,2
DA:5697,1
DA:5700,1
DA:5702,1
DA:5703,4
DA:5710,0
DA:5711,0
DA:5712,0
DA:5714,0
DA:5715,0
DA:5716,0
DA:5717,0
DA:5718,0
DA:5719,0
DA:5721,0
DA:5722,0
DA:5724,0
DA:5725,0
DA:5730,0
DA:5731,0
DA:5732,0
DA:5733,0
DA:5738,1
DA:5739,1
DA:5741,1
DA:5742,0
DA:5743,0
DA:5744,1
DA:5745,0
DA:5746,0
DA:5747,1
DA:5748,0
DA:5749,0
DA:5757,1
DA:5762,1
DA:5763,1
DA:5764,1
DA:5765,0
DA:5766,0
DA:5767,0
DA:5768,0
DA:5770,0
DA:5771,0
DA:5774,1
DA:5782,2
DA:5784,2
DA:5785,1
DA:5793,1
DA:5794,1
DA:5800,1
DA:5804,1
DA:5806,1
DA:5807,0
DA:5812,1
DA:5822,2
DA:5836,9
DA:5843,9
DA:5844,8
DA:5849,1
DA:5850,1
DA:5851,0
DA:5855,1
DA:5856,1
DA:5857,1
DA:5859,1
DA:5861,1
DA:5866,0
DA:5867,0
DA:5871,1
DA:5874,1
DA:5875,1
DA:5876,1
DA:5880,0
DA:5881,0
DA:5886,0
DA:5887,0
DA:5888,0
DA:5889,0
DA:5891,0
DA:5892,0
DA:5895,0
DA:5896,0
DA:5909,1
DA:5912,1
DA:5915,1
DA:5919,1
DA:5923,1
DA:5924,0
DA:5926,0
DA:5928,0
DA:5930,0
DA:5931,0
DA:5934,0
DA:5935,0
DA:5938,0
DA:5939,0
DA:5947,1
DA:5952,1
DA:5955,1
DA:5963,1
DA:5968,1
DA:5969,2
DA:5970,1
DA:5973,1
DA:5975,0
DA:5979,1
DA:5982,1
DA:5984,1
DA:5986,1
DA:5987,1
DA:5991,1
DA:5994,1
DA:6002,2
DA:6003,1
DA:6006,2
DA:6009,1
DA:6011,1
DA:6014,1
DA:6015,0
DA:6019,0
DA:6023,1
DA:6026,1
DA:6029,1
DA:6030,1
DA:6031,1
DA:6032,1
DA:6037,1
DA:6040,0
DA:6041,0
DA:6042,0
DA:6043,0
DA:6044,0
DA:6045,0
DA:6046,0
DA:6047,0
DA:6048,0
DA:6050,0
DA:6051,1
DA:6052,2
DA:6054,2
DA:6055,1
DA:6056,0
DA:6057,0
DA:6058,0
DA:6063,0
DA:6067,0
DA:6069,0
DA:6076,1
DA:6077,1
DA:6078,1
DA:6080,1
DA:6084,1
DA:6087,1
DA:6090,1
DA:6091,0
DA:6100,1
DA:6102,1
DA:6104,0
DA:6108,1
DA:6110,1
DA:6111,1
DA:6112,1
DA:6113,1
DA:6117,1
DA:6118,0
DA:6119,0
DA:6120,0
DA:6121,0
DA:6123,0
DA:6125,0
DA:6127,1
DA:6128,0
DA:6137,1
DA:6145,1
DA:6146,1
DA:6147,1
DA:6148,0
DA:6149,0
DA:6150,0
DA:6154,0
DA:6155,0
DA:6157,0
DA:6159,1
DA:6168,2
DA:6170,2
DA:6174,2
DA:6175,2
DA:6177,2
DA:6179,0
DA:6180,0
DA:6181,0
DA:6182,0
DA:6183,0
DA:6184,0
DA:6185,0
DA:6186,0
DA:6187,0
DA:6188,0
DA:6189,0
DA:6190,0
DA:6191,0
DA:6192,0
DA:6193,0
DA:6194,0
DA:6195,0
DA:6196,0
DA:6197,0
DA:6198,0
DA:6199,0
DA:6200,0
DA:6201,0
DA:6202,0
DA:6203,0
DA:6204,0
DA:6206,0
DA:6212,4
DA:6213,4
DA:6214,4
DA:6218,0
DA:6219,0
DA:6221,0
DA:6223,0
DA:6230,0
DA:6231,0
DA:6241,1
DA:6242,1
DA:6243,1
DA:6244,0
DA:6245,0
DA:6246,0
DA:6247,1
DA:6249,1
DA:6250,1
DA:6251,1
DA:6256,1
DA:6257,1
DA:6258,2
DA:6259,1
DA:6260,1
DA:6262,10
DA:6263,9
DA:6266,9
DA:6267,18
DA:6268,9
DA:6269,9
DA:6271,9
DA:6272,9
DA:6273,9
DA:6275,18
DA:6276,9
DA:6279,9
DA:6280,9
DA:6281,0
DA:6282,9
DA:6283,9
DA:6285,9
DA:6286,9
DA:6288,9
DA:6289,17
DA:6292,2
DA:6293,1
DA:6299,1
DA:6300,1
DA:6305,1
DA:6306,1
DA:6307,1
DA:6308,1
DA:6309,1
DA:6310,1
DA:6311,1
DA:6312,1
DA:6317,1
DA:6323,0
DA:6324,0
DA:6325,0
DA:6326,0
DA:6327,0
DA:6330,0
DA:6331,0
DA:6332,0
DA:6334,0
DA:6335,0
DA:6339,0
DA:6342,0
DA:6344,0
DA:6346,0
DA:6347,0
DA:6349,0
DA:6350,0
DA:6351,0
DA:6352,0
DA:6353,0
DA:6354,0
DA:6355,0
DA:6356,0
DA:6359,0
DA:6361,0
DA:6363,0
DA:6364,0
DA:6365,0
DA:6368,0
DA:6370,0
DA:6374,0
DA:6376,0
DA:6377,0
DA:6378,0
DA:6379,0
DA:6380,0
DA:6381,0
DA:6382,0
DA:6383,0
DA:6384,0
DA:6385,0
DA:6386,0
DA:6387,0
DA:6388,0
DA:6390,0
DA:6391,0
DA:6392,0
DA:6394,0
DA:6401,0
DA:6403,0
DA:6404,0
DA:6405,0
DA:6407,0
DA:6412,0
DA:6413,47
DA:6417,1
DA:6421,47
DA:6425,0
DA:6426,38
DA:6427,0
DA:6429,2
DA:6430,0
DA:6432,0
DA:6437,0
DA:6439,0
DA:6442,0
DA:6443,0
DA:6446,0
DA:6447,0
DA:6449,0
DA:6452,1
DA:6453,2
DA:6455,1
DA:6457,1
DA:6459,1
DA:6472,0
DA:6475,0
DA:6484,18
DA:6486,5
DA:6490,5
DA:6492,5
DA:6498,0
DA:6499,0
DA:6500,0
DA:6501,0
DA:6502,0
DA:6512,0
DA:6515,0
DA:6518,0
DA:6519,0
DA:6520,0
DA:6521,0
DA:6524,0
DA:6527,0
DA:6534,0
DA:6537,0
DA:6538,0
DA:6550,0
DA:6552,0
DA:6555,0
DA:6558,0
DA:6559,0
DA:6566,0
DA:6568,0
DA:6571,0
DA:6574,0
DA:6583,0
DA:6585,0
DA:6588,0
DA:6591,0
DA:6601,0
DA:6602,0
DA:6603,0
DA:6604,0
DA:6605,0
DA:6606,0
DA:6618,0
DA:6619,0
DA:6625,0
DA:6626,0
DA:6627,0
DA:6628,0
DA:6629,0
DA:6632,0
DA:6634,0
DA:6635,0
DA:6636,0
DA:6637,0
DA:6647,0
DA:6748,0
DA:6758,0
DA:6759,0
DA:6760,0
DA:6761,0
DA:6762,0
DA:6763,0
DA:6764,0
DA:6765,0
DA:6766,0
DA:6767,0
DA:6768,0
DA:6769,0
DA:6770,0
DA:6771,0
DA:6772,0
DA:6773,0
DA:6774,0
DA:6775,0
DA:6776,0
DA:6777,0
DA:6778,0
DA:6779,0
DA:6780,0
DA:6784,0
DA:6785,0
DA:6786,0
DA:6787,0
DA:6788,0
DA:6790,0
DA:6791,0
DA:6792,0
DA:6793,0
DA:6794,0
DA:6795,0
DA:6796,0
DA:6798,0
DA:6805,1
DA:6806,1
DA:6807,1
DA:6808,0
DA:6809,0
DA:6813,0
DA:6814,0
DA:6817,0
DA:6818,0
DA:6819,0
DA:6822,0
DA:6825,0
DA:6830,0
DA:6831,0
DA:6835,0
DA:6838,0
DA:6842,0
DA:6846,1
DA:6850,0
DA:6852,1
DA:6860,0
DA:6910,1
DA:6923,0
DA:6924,0
DA:6925,0
DA:6926,0
DA:6933,1
DA:6935,1
DA:6937,1
DA:6939,2
DA:6940,2
DA:6941,2
DA:6956,1
DA:6957,1
DA:6971,1
DA:6975,1
DA:6977,1
DA:6981,0
DA:6985,0
DA:6987,0
DA:6991,0
DA:6993,0
DA:6994,0
DA:6995,0
DA:6996,0
DA:7001,0
DA:7003,0
DA:7011,0
DA:7014,0
DA:7015,0
DA:7016,0
DA:7017,0
DA:7018,0
DA:7020,0
DA:7023,0
DA:7027,0
DA:7035,0
DA:7042,0
DA:7043,0
DA:7044,0
DA:7045,0
DA:7049,0
DA:7059,0
DA:7060,0
DA:7069,0
DA:7070,0
DA:7071,0
DA:7072,0
DA:7073,0
DA:7075,0
DA:7076,0
DA:7079,0
DA:7080,0
DA:7081,0
LF:2728
LH:659
end_of_record
TN:
SF:/home/runner/work/TDDThreadSafeContainer/TDDThreadSafeContainer/tests/test_threadsafe_storage.cpp
FN:107,129,_ZN60storage_test_test_correct_storage_and_cache_work_remove_Test8TestBodyEv
FN:107,129,_ZN60storage_test_test_correct_storage_and_cache_work_remove_TestD0Ev
FN:107,129,_ZN60storage_test_test_correct_storage_and_cache_work_remove_TestD2Ev
FN:13,13,_ZN42storage_test_test_invalid_constructor_Test8TestBodyEv
FN:13,13,_ZN42storage_test_test_invalid_constructor_TestD0Ev
FN:13,13,_ZN42storage_test_test_invalid_constructor_TestD2Ev
FN:134,178,_ZN36storage_test_test_thread_access_Test8TestBodyEv
FN:134,178,_ZN36storage_test_test_thread_access_TestD0Ev
FN:134,178,_ZN36storage_test_test_thread_access_TestD2Ev
FN:145,171,_ZZN36storage_test_test_thread_access_Test8TestBodyEvENKUliiE_clEii
FN:180,183,main
FN:21,21,_ZN36storage_test_test_invalid_store_Test8TestBodyEv
FN:21,21,_ZN36storage_test_test_invalid_store_TestD0Ev
FN:21,21,_ZN36storage_test_test_invalid_store_TestD2Ev
FN:32,32,_ZN33storage_test_test_store_load_Test8TestBodyEv
FN:32,32,_ZN33storage_test_test_store_load_TestD0Ev
FN:32,32,_ZN33storage_test_test_store_load_TestD2Ev
FN:43,43,_ZN38storage_test_test_remove_contains_Test8TestBodyEv
FN:43,43,_ZN38storage_test_test_remove_contains_TestD0Ev
FN:43,43,_ZN38storage_test_test_remove_contains_TestD2Ev
FN:56,56,_ZN38storage_test_test_unexistant_load_Test8TestBodyEv
FN:56,56,_ZN38storage_test_test_unexistant_load_TestD0Ev
FN:56,56,_ZN38storage_test_test_unexistant_load_TestD2Ev
FN:64,64,_ZN40storage_test_test_unexistant_remove_Test8TestBodyEv
FN:64,64,_ZN40storage_test_test_unexistant_remove_TestD0Ev
FN:64,64,_ZN40storage_test_test_unexistant_remove_TestD2Ev
FN:71,71,_ZN58storage_test_test_correct_storage_and_cache_work_load_Test8TestBodyEv
FN:71,71,_ZN58storage_test_test_correct_storage_and_cache_work_load_TestD0Ev
FN:71,71,_ZN58storage_test_test_correct_storage_and_cache_work_load_TestD2Ev
FNDA:1,_ZN60storage_test_test_correct_storage_and_cache_work_remove_Test8TestBodyEv
FNDA:1,_ZN60storage_test_test_correct_storage_and_cache_work_remove_TestD0Ev
FNDA:0,_ZN60storage_test_test_correct_storage_and_cache_work_remove_TestD2Ev
FNDA:1,_ZN42storage_test_test_invalid_constructor_Test8TestBodyEv
FNDA:1,_ZN42storage_test_test_invalid_constructor_TestD0Ev
FNDA:0,_ZN42storage_test_test_invalid_constructor_TestD2Ev
FNDA:1,_ZN36storage_test_test_thread_access_Test8TestBodyEv
FNDA:1,_ZN36storage_test_test_thread_access_TestD0Ev
FNDA:0,_ZN36storage_test_test_thread_access_TestD2Ev
FNDA:10,_ZZN36storage_test_test_thread_access_Test8TestBodyEvENKUliiE_clEii
FNDA:1,main
FNDA:1,_ZN36storage_test_test_invalid_store_Test8TestBodyEv
FNDA:1,_ZN36storage_test_test_invalid_store_TestD0Ev
FNDA:0,_ZN36storage_test_test_invalid_store_TestD2Ev
FNDA:1,_ZN33storage_test_test_store_load_Test8TestBodyEv
FNDA:1,_ZN33storage_test_test_store_load_TestD0Ev
FNDA:0,_ZN33storage_test_test_store_load_TestD2Ev
FNDA:1,_ZN38storage_test_test_remove_contains_Test8TestBodyEv
FNDA:1,_ZN38storage_test_test_remove_contains_TestD0Ev
FNDA:0,_ZN38storage_test_test_remove_contains_TestD2Ev
FNDA:1,_ZN38storage_test_test_unexistant_load_Test8TestBodyEv
FNDA:1,_ZN38storage_test_test_unexistant_load_TestD0Ev
FNDA:0,_ZN38storage_test_test_unexistant_load_TestD2Ev
FNDA:1,_ZN40storage_test_test_unexistant_remove_Test8TestBodyEv
FNDA:1,_ZN40storage_test_test_unexistant_remove_TestD0Ev
FNDA:0,_ZN40storage_test_test_unexistant_remove_TestD2Ev
FNDA:1,_ZN58storage_test_test_correct_storage_and_cache_work_load_Test8TestBodyEv
FNDA:1,_ZN58storage_test_test_correct_storage_and_cache_work_load_TestD0Ev
FNDA:0,_ZN58storage_test_test_correct_storage_and_cache_work_load_TestD2Ev
FNF:29
FNH:20
DA:13,3
DA:14,1
DA:17,1
DA:18,1
DA:21,3
DA:22,1
DA:23,1
DA:24,1
DA:25,1
DA:28,0
DA:29,2
DA:32,3
DA:33,1
DA:35,1
DA:36,2
DA:38,1
DA:39,2
DA:40,2
DA:43,3
DA:44,1
DA:45,1
DA:46,2
DA:48,1
DA:49,1
DA:51,2
DA:52,1
DA:53,2
DA:56,3
DA:57,1
DA:59,1
DA:60,1
DA:61,2
DA:64,3
DA:65,1
DA:67,1
DA:68,2
DA:71,3
DA:72,1
DA:73,1
DA:74,1
DA:76,11
DA:77,10
DA:80,1
DA:81,1
DA:82,1
DA:84,1
DA:85,1
DA:87,1
DA:89,1
DA:90,1
DA:91,1
DA:92,1
DA:94,1
DA:95,1
DA:97,1
DA:98,1
DA:99,1
DA:100,1
DA:101,1
DA:102,1
DA:103,1
DA:104,2
DA:107,3
DA:108,1
DA:109,1
DA:110,1
DA:112,11
DA:113,10
DA:116,1
DA:117,1
DA:118,1
DA:120,1
DA:121,1
DA:123,1
DA:125,1
DA:126,1
DA:127,1
DA:128,1
DA:129,2
DA:134,3
DA:135,1
DA:136,1
DA:137,1
DA:139,1
DA:140,1
DA:142,1
DA:144,11
DA:145,20
DA:149,10
DA:150,10
DA:151,10
DA:153,10
DA:154,10
DA:156,10010
DA:157,10000
DA:158,10000
DA:160,10000
DA:161,10000
DA:162,10000
DA:163,10000
DA:165,10000
DA:166,1000
DA:167,1000
DA:168,2000
DA:169,1000
DA:170,10000
DA:171,20
DA:172,10
DA:175,11
DA:176,10
DA:178,2
DA:180,1
DA:181,1
DA:182,1
LF:114
LH:113
end_of_record
TN:
SF:/usr/include/c++/13/any
FN:58,58,_ZNKSt12bad_any_cast4whatEv
FNDA:0,_ZNKSt12bad_any_cast4whatEv
FNF:1
FNH:0
DA:58,0
LF:1
LH:0
end_of_record
TN:
SF:/usr/include/c++/13/atomic
FNF:0
FNH:0
DA:833,0
LF:1
LH:0
end_of_record
TN:
SF:/usr/include/c++/13/bits/alloc_traits.h
FNF:0
FNH:0
DA:481,20821
DA:482,20822
DA:516,0
DA:517,0
DA:533,6542
DA:540,20696
DA:554,14077
DA:560,0
DA:587,11038
DA:588,11038
DA:945,1
DA:948,54
LF:12
LH:9
end_of_record
TN:
SF:/usr/include/c++/13/bits/allocated_ptr.h
FNF:0
FNH:0
DA:53,6504
DA:54,6504
DA:71,6504
DA:74,0
DA:81,6504
LF:5
LH:4
end_of_record
TN:
SF:/usr/include/c++/13/bits/allocator.h
FNF:0
FNH:0
DA:163,17709
DA:167,31096
DA:168,31096
DA:178,999
DA:184,50865
DA:189,20697
DA:198,20821
DA:203,0
DA:210,0
LF:9
LH:7
end_of_record
TN:
SF:/usr/include/c++/13/bits/atomic_base.h
FNF:0
FNH:0
DA:362,0
DA:643,0
DA:645,0
LF:3
LH:0
end_of_record
TN:
SF:/usr/include/c++/13/bits/basic_string.h
FN:1455,1460,_ZNSt7__cxx1112basic_stringIcSt11char_traitsIcESaIcEE6appendEPKcm
FN:1469,1475,_ZNSt7__cxx1112basic_stringIcSt11char_traitsIcESaIcEE6appendEPKc
FN:1561,1568,_ZNSt7__cxx1112basic_stringIcSt11char_traitsIcESaIcEE9push_backEc
FN:1681,1686,_ZNSt7__cxx1112basic_stringIcSt11char_traitsIcESaIcEE6assignEPKc
FN:1962,1967,_ZNSt7__cxx1112basic_stringIcSt11char_traitsIcESaIcEE6insertEmPKc
FN:2069,2077,_ZNSt7__cxx1112basic_stringIcSt11char_traitsIcESaIcEE5eraseEmm
FN:2109,2119,_ZNSt7__cxx1112basic_stringIcSt11char_traitsIcESaIcEE5eraseEN9__gnu_cxx17__normal_iteratorIPKcS4_EES9_
FN:2204,2210,_ZNSt7__cxx1112basic_stringIcSt11char_traitsIcESaIcEE7replaceEmmPKcm
FN:2255,2257,_ZNSt7__cxx1112basic_stringIcSt11char_traitsIcESaIcEE7replaceEmmmc
FN:280,284,_ZNSt7__cxx1112basic_stringIcSt11char_traitsIcESaIcEE10_M_disposeEv
FN:280,284,_ZNSt7__cxx1112basic_stringIwSt11char_traitsIwESaIwEE10_M_disposeEv
FN:3163,3165,_ZNKSt7__cxx1112basic_stringIcSt11char_traitsIcESaIcEE6substrEmm
FN:3183,3193,_ZNKSt7__cxx1112basic_stringIcSt11char_traitsIcESaIcEE7compareERKS4_
FN:3383,3394,_ZNKSt7__cxx1112basic_stringIcSt11char_traitsIcESaIcEE7compareEmmPKc
FN:3528,3541,_ZSt12__str_concatINSt7__cxx1112basic_stringIcSt11char_traitsIcESaIcEEEET_PKNS6_10value_typeENS6_9size_typeES9_SA_RKNS6_14allocator_typeE
FN:3571,3579,_ZStplIcSt11char_traitsIcESaIcEENSt7__cxx1112basic_stringIT_T0_T1_EEPKS5_RKS8_
FN:3607,3615,_ZStplIcSt11char_traitsIcESaIcEENSt7__cxx1112basic_stringIT_T0_T1_EERKS8_PKS5_
FN:3637,3639,_ZStplIcSt11char_traitsIcESaIcEENSt7__cxx1112basic_stringIT_T0_T1_EEOS8_RKS8_
FN:3651,3669,_ZStplIcSt11char_traitsIcESaIcEENSt7__cxx1112basic_stringIT_T0_T1_EEOS8_S9_
FN:3674,3676,_ZStplIcSt11char_traitsIcESaIcEENSt7__cxx1112basic_stringIT_T0_T1_EEPKS5_OS8_
FN:3695,3697,_ZStplIcSt11char_traitsIcESaIcEENSt7__cxx1112basic_stringIT_T0_T1_EEOS8_S5_
FN:3710,3716,_ZSteqIcSt11char_traitsIcESaIcEEbRKNSt7__cxx1112basic_stringIT_T0_T1_EESA_
FN:3727,3732,_ZSteqIcSt11char_traitsIcESaIcEEbRKNSt7__cxx1112basic_stringIT_T0_T1_EEPKS5_
FN:4162,4173,_ZNSt7__cxx119to_stringEi
FN:581,589,_ZNSt7__cxx1112basic_stringIcSt11char_traitsIcESaIcEEC2ERKS4_mm
FN:619,628,_ZNSt7__cxx1112basic_stringIcSt11char_traitsIcESaIcEEC2EPKcmRKS3_
FN:641,650,_ZNSt7__cxx1112basic_stringIcSt11char_traitsIcESaIcEEC1IS3_EEPKcRKS3_
FN:641,650,_ZNSt7__cxx1112basic_stringIwSt11char_traitsIwESaIwEEC2IS3_EEPKwRKS3_
FN:677,698,_ZNSt7__cxx1112basic_stringIcSt11char_traitsIcESaIcEEC2EOS4_
FN:803,804,_ZNSt7__cxx1112basic_stringIcSt11char_traitsIcESaIcEED1Ev
FN:803,804,_ZNSt7__cxx1112basic_stringIcSt11char_traitsIcESaIcEED2Ev
FN:853,913,_ZNSt7__cxx1112basic_stringIcSt11char_traitsIcESaIcEEaSEOS4_
FNDA:30,_ZNSt7__cxx1112basic_stringIcSt11char_traitsIcESaIcEE6appendEPKcm
FNDA:14,_ZNSt7__cxx1112basic_stringIcSt11char_traitsIcESaIcEE6appendEPKc
FNDA:933,_ZNSt7__cxx1112basic_stringIcSt11char_traitsIcESaIcEE9push_backEc
FNDA:0,_ZNSt7__cxx1112basic_stringIcSt11char_traitsIcESaIcEE6assignEPKc
FNDA:0,_ZNSt7__cxx1112basic_stringIcSt11char_traitsIcESaIcEE6insertEmPKc
FNDA:0,_ZNSt7__cxx1112basic_stringIcSt11char_traitsIcESaIcEE5eraseEmm
FNDA:1,_ZNSt7__cxx1112basic_stringIcSt11char_traitsIcESaIcEE5eraseEN9__gnu_cxx17__normal_iteratorIPKcS4_EES9_
FNDA:63,_ZNSt7__cxx1112basic_stringIcSt11char_traitsIcESaIcEE7replaceEmmPKcm
FNDA:0,_ZNSt7__cxx1112basic_stringIcSt11char_traitsIcESaIcEE7replaceEmmmc
FNDA:30365,_ZNSt7__cxx1112basic_stringIcSt11char_traitsIcESaIcEE10_M_disposeEv
FNDA:0,_ZNSt7__cxx1112basic_stringIwSt11char_traitsIwESaIwEE10_M_disposeEv
FNDA:8,_ZNKSt7__cxx1112basic_stringIcSt11char_traitsIcESaIcEE6substrEmm
FNDA:0,_ZNKSt7__cxx1112basic_stringIcSt11char_traitsIcESaIcEE7compareERKS4_
FNDA:0,_ZNKSt7__cxx1112basic_stringIcSt11char_traitsIcESaIcEE7compareEmmPKc
FNDA:10,_ZSt12__str_concatINSt7__cxx1112basic_stringIcSt11char_traitsIcESaIcEEEET_PKNS6_10value_typeENS6_9size_typeES9_SA_RKNS6_14allocator_typeE
FNDA:0,_ZStplIcSt11char_traitsIcESaIcEENSt7__cxx1112basic_stringIT_T0_T1_EEPKS5_RKS8_
FNDA:10,_ZStplIcSt11char_traitsIcESaIcEENSt7__cxx1112basic_stringIT_T0_T1_EERKS8_PKS5_
FNDA:10,_ZStplIcSt11char_traitsIcESaIcEENSt7__cxx1112basic_stringIT_T0_T1_EEOS8_RKS8_
FNDA:0,_ZStplIcSt11char_traitsIcESaIcEENSt7__cxx1112basic_stringIT_T0_T1_EEOS8_S9_
FNDA:0,_ZStplIcSt11char_traitsIcESaIcEENSt7__cxx1112basic_stringIT_T0_T1_EEPKS5_OS8_
FNDA:0,_ZStplIcSt11char_traitsIcESaIcEENSt7__cxx1112basic_stringIT_T0_T1_EEOS8_S5_
FNDA:11040,_ZSteqIcSt11char_traitsIcESaIcEEbRKNSt7__cxx1112basic_stringIT_T0_T1_EESA_
FNDA:2,_ZSteqIcSt11char_traitsIcESaIcEEbRKNSt7__cxx1112basic_stringIT_T0_T1_EEPKS5_
FNDA:10000,_ZNSt7__cxx119to_stringEi
FNDA:8,_ZNSt7__cxx1112basic_stringIcSt11char_traitsIcESaIcEEC2ERKS4_mm
FNDA:0,_ZNSt7__cxx1112basic_stringIcSt11char_traitsIcESaIcEEC2EPKcmRKS3_
FNDA:50,_ZNSt7__cxx1112basic_stringIcSt11char_traitsIcESaIcEEC1IS3_EEPKcRKS3_
FNDA:0,_ZNSt7__cxx1112basic_stringIwSt11char_traitsIwESaIwEEC2IS3_EEPKwRKS3_
FNDA:1393,_ZNSt7__cxx1112basic_stringIcSt11char_traitsIcESaIcEEC2EOS4_
FNDA:0,_ZNSt7__cxx1112basic_stringIcSt11char_traitsIcESaIcEED1Ev
FNDA:15,_ZNSt7__cxx1112basic_stringIcSt11char_traitsIcESaIcEED2Ev
FNDA:1,_ZNSt7__cxx1112basic_stringIcSt11char_traitsIcESaIcEEaSEOS4_
FNF:32
FNH:18
DA:124,39
DA:126,39
DA:153,0
DA:163,0
DA:176,0
DA:177,0
DA:181,0
DA:188,10028
DA:189,10028
DA:192,0
DA:193,7655
DA:212,0
DA:213,0
DA:217,0
DA:218,0
DA:222,0
DA:223,31586
DA:227,1306
DA:230,17368
DA:238,0
DA:241,0
DA:249,0
DA:250,0
DA:254,0
DA:256,0
DA:257,0
DA:258,0
DA:262,0
DA:264,1393
DA:266,52418
DA:267,0
DA:280,30365
DA:282,30365
DA:283,105
DA:284,30365
DA:288,57
DA:289,57
DA:336,1402
DA:337,239
DA:341,0
DA:342,174
DA:348,8872
DA:360,1393
DA:365,1394
DA:386,79
DA:388,79
DA:389,0
DA:397,0
DA:399,0
DA:400,0
DA:407,71
DA:409,71
DA:410,71
DA:415,63
DA:417,63
DA:418,63
DA:425,0
DA:427,20704
DA:428,0
DA:430,20826
DA:435,0
DA:437,0
DA:438,0
DA:440,63
DA:445,0
DA:447,10000
DA:448,0
DA:450,0
DA:477,11026
DA:478,22052
DA:482,28
DA:484,116
DA:488,0
DA:490,0
DA:492,0
DA:494,0
DA:497,0
DA:522,7575
DA:524,7648
DA:526,7648
DA:527,7648
DA:535,10
DA:536,10
DA:538,10
DA:539,10
DA:547,0
DA:548,0
DA:549,11026
DA:551,0
DA:581,8
DA:583,8
DA:585,16
DA:586,8
DA:587,8
DA:589,8
DA:619,0
DA:621,0
DA:624,0
DA:625,0
DA:627,0
DA:628,0
DA:641,50
DA:642,50
DA:645,50
DA:646,0
DA:648,50
DA:649,50
DA:650,50
DA:664,10000
DA:665,10000
DA:666,10000
DA:677,1393
DA:678,1393
DA:680,1393
DA:682,1346
DA:683,1346
DA:684,1346
DA:688,47
DA:689,47
DA:695,1393
DA:696,1393
DA:697,1393
DA:698,1393
DA:760,0
DA:762,0
DA:765,0
DA:795,0
DA:796,0
DA:803,0
DA:804,19123
DA:812,20430
DA:814,20448
DA:823,0
DA:824,0
DA:853,1
DA:856,1
DA:858,1
DA:867,1
DA:869,0
DA:874,0
DA:876,0
DA:877,0
DA:878,0
DA:884,1
DA:886,0
DA:891,0
DA:892,0
DA:898,1
DA:899,1
DA:900,1
DA:901,1
DA:903,0
DA:904,0
DA:907,1
DA:911,1
DA:912,1
DA:944,0
DA:945,0
DA:955,0
DA:956,7
DA:964,0
DA:965,6
DA:973,0
DA:974,0
DA:982,0
DA:983,0
DA:1032,1
DA:1033,1
DA:1071,0
DA:1072,324
DA:1078,49
DA:1079,33598
DA:1169,20815
DA:1171,21724
DA:1211,1
DA:1212,1
DA:1220,0
DA:1221,16
DA:1236,0
DA:1238,0
DA:1239,0
DA:1254,10000
DA:1258,10000
DA:1261,10000
DA:1366,0
DA:1367,0
DA:1376,0
DA:1377,0
DA:1386,933
DA:1388,933
DA:1424,0
DA:1425,0
DA:1455,30
DA:1458,30
DA:1459,60
DA:1469,14
DA:1472,14
DA:1473,14
DA:1474,28
DA:1487,0
DA:1488,0
DA:1561,933
DA:1563,933
DA:1564,1866
DA:1565,0
DA:1566,933
DA:1567,933
DA:1568,933
DA:1577,20430
DA:1608,20448
DA:1681,0
DA:1684,0
DA:1685,0
DA:1894,0
DA:1895,0
DA:1896,0
DA:1962,0
DA:1965,0
DA:1966,0
DA:2069,0
DA:2071,0
DA:2072,0
DA:2073,0
DA:2074,0
DA:2075,0
DA:2076,0
DA:2089,0
DA:2093,0
DA:2094,0
DA:2095,0
DA:2109,1
DA:2113,1
DA:2114,1
DA:2115,1
DA:2117,0
DA:2118,1
DA:2204,63
DA:2208,63
DA:2209,63
DA:2255,0
DA:2256,0
DA:2257,0
DA:2595,0
DA:2596,698
DA:2608,0
DA:2609,0
DA:2620,0
DA:2621,0
DA:2629,0
DA:2630,0
DA:2661,0
DA:2663,0
DA:2695,0
DA:2698,0
DA:3163,8
DA:3165,16
DA:3183,0
DA:3185,0
DA:3186,0
DA:3187,0
DA:3189,0
DA:3190,0
DA:3191,0
DA:3192,0
DA:3383,0
DA:3386,0
DA:3387,0
DA:3388,0
DA:3389,0
DA:3390,0
DA:3391,0
DA:3392,0
DA:3393,0
DA:3528,10
DA:3536,10
DA:3537,10
DA:3538,10
DA:3539,10
DA:3540,10
DA:3541,0
DA:3571,0
DA:3578,0
DA:3607,10
DA:3614,10
DA:3625,0
DA:3630,0
DA:3637,10
DA:3639,20
DA:3651,0
DA:3658,0
DA:3664,0
DA:3665,0
DA:3666,0
DA:3668,0
DA:3674,0
DA:3676,0
DA:3688,0
DA:3690,7
DA:3695,0
DA:3697,0
DA:3710,11040
DA:3714,11040
DA:3715,22072
DA:3727,2
DA:3730,2
DA:3731,2
DA:3745,0
DA:3748,0
DA:3994,0
DA:3997,0
DA:4032,0
DA:4037,0
DA:4162,10000
DA:4167,10000
DA:4168,10000
DA:4169,10000
DA:4170,10000
DA:4171,10000
DA:4172,10000
DA:4407,0
DA:4408,1
LF:321
LH:157
end_of_record
TN:
SF:/usr/include/c++/13/bits/basic_string.tcc
FN:138,160,_ZNSt7__cxx1112basic_stringIcSt11char_traitsIcESaIcEE9_M_createERmm
FN:138,160,_ZNSt7__cxx1112basic_stringIwSt11char_traitsIwESaIwEE9_M_createERmm
FN:221,252,_ZNSt7__cxx1112basic_stringIcSt11char_traitsIcESaIcEE12_M_constructIPKcEEvT_S8_St20forward_iterator_tag
FN:221,252,_ZNSt7__cxx1112basic_stringIcSt11char_traitsIcESaIcEE12_M_constructIPcEEvT_S7_St20forward_iterator_tag
FN:221,252,_ZNSt7__cxx1112basic_stringIwSt11char_traitsIwESaIwEE12_M_constructIPKwEEvT_S8_St20forward_iterator_tag
FN:257,272,_ZNSt7__cxx1112basic_stringIcSt11char_traitsIcESaIcEE12_M_constructEmc
FN:277,299,_ZNSt7__cxx1112basic_stringIcSt11char_traitsIcESaIcEE9_M_assignERKS4_
FN:304,320,_ZNSt7__cxx1112basic_stringIcSt11char_traitsIcESaIcEE7reserveEm
FN:325,345,_ZNSt7__cxx1112basic_stringIcSt11char_traitsIcESaIcEE9_M_mutateEmmPKcm
FN:350,359,_ZNSt7__cxx1112basic_stringIcSt11char_traitsIcESaIcEE8_M_eraseEmm
FN:413,428,_ZNSt7__cxx1112basic_stringIcSt11char_traitsIcESaIcEE9_M_appendEPKcm
FN:450,475,_ZNSt7__cxx1112basic_stringIcSt11char_traitsIcESaIcEE14_M_replace_auxEmmmc
FN:511,552,_ZNSt7__cxx1112basic_stringIcSt11char_traitsIcESaIcEE10_M_replaceEmmPKcm
FN:59,133,_ZNSt7__cxx1112basic_stringIcSt11char_traitsIcESaIcEE4swapERS4_
FN:618,650,_ZNKSt7__cxx1112basic_stringIcSt11char_traitsIcESaIcEE4findEPKcmm
FN:618,650,_ZNKSt7__cxx1112basic_stringIwSt11char_traitsIwESaIwEE4findEPKwmm
FN:655,669,_ZNKSt7__cxx1112basic_stringIcSt11char_traitsIcESaIcEE4findEcm
FNDA:134,_ZNSt7__cxx1112basic_stringIcSt11char_traitsIcESaIcEE9_M_createERmm
FNDA:0,_ZNSt7__cxx1112basic_stringIwSt11char_traitsIwESaIwEE9_M_createERmm
FNDA:58,_ZNSt7__cxx1112basic_stringIcSt11char_traitsIcESaIcEE12_M_constructIPKcEEvT_S8_St20forward_iterator_tag
FNDA:11026,_ZNSt7__cxx1112basic_stringIcSt11char_traitsIcESaIcEE12_M_constructIPcEEvT_S7_St20forward_iterator_tag
FNDA:0,_ZNSt7__cxx1112basic_stringIwSt11char_traitsIwESaIwEE12_M_constructIPKwEEvT_S8_St20forward_iterator_tag
FNDA:10000,_ZNSt7__cxx1112basic_stringIcSt11char_traitsIcESaIcEE12_M_constructEmc
FNDA:20538,_ZNSt7__cxx1112basic_stringIcSt11char_traitsIcESaIcEE9_M_assignERKS4_
FNDA:102,_ZNSt7__cxx1112basic_stringIcSt11char_traitsIcESaIcEE7reserveEm
FNDA:39,_ZNSt7__cxx1112basic_stringIcSt11char_traitsIcESaIcEE9_M_mutateEmmPKcm
FNDA:0,_ZNSt7__cxx1112basic_stringIcSt11char_traitsIcESaIcEE8_M_eraseEmm
FNDA:44,_ZNSt7__cxx1112basic_stringIcSt11char_traitsIcESaIcEE9_M_appendEPKcm
FNDA:0,_ZNSt7__cxx1112basic_stringIcSt11char_traitsIcESaIcEE14_M_replace_auxEmmmc
FNDA:92,_ZNSt7__cxx1112basic_stringIcSt11char_traitsIcESaIcEE10_M_replaceEmmPKcm
FNDA:0,_ZNSt7__cxx1112basic_stringIcSt11char_traitsIcESaIcEE4swapERS4_
FNDA:0,_ZNKSt7__cxx1112basic_stringIcSt11char_traitsIcESaIcEE4findEPKcmm
FNDA:0,_ZNKSt7__cxx1112basic_stringIwSt11char_traitsIwESaIwEE4findEPKwmm
FNDA:8,_ZNKSt7__cxx1112basic_stringIcSt11char_traitsIcESaIcEE4findEcm
FNF:17
FNH:10
DA:59,0
DA:62,0
DA:63,0
DA:65,0
DA:67,0
DA:68,0
DA:70,0
DA:73,0
DA:74,0
DA:75,0
DA:76,0
DA:77,0
DA:78,0
DA:80,0
DA:82,0
DA:83,0
DA:84,0
DA:85,0
DA:86,0
DA:87,0
DA:89,0
DA:91,0
DA:92,0
DA:93,0
DA:94,0
DA:95,0
DA:96,0
DA:101,0
DA:102,0
DA:103,0
DA:104,0
DA:105,0
DA:106,0
DA:107,0
DA:111,0
DA:112,0
DA:114,0
DA:115,0
DA:116,0
DA:117,0
DA:118,0
DA:122,0
DA:123,0
DA:124,0
DA:125,0
DA:127,0
DA:130,0
DA:131,0
DA:132,0
DA:138,134
DA:143,134
DA:144,0
DA:149,134
DA:151,40
DA:153,40
DA:154,0
DA:159,134
DA:221,11084
DA:225,11084
DA:227,11084
DA:229,21
DA:230,21
DA:239,11084
DA:242,11084
DA:245,11084
DA:247,11084
DA:249,11084
DA:251,11084
DA:252,11084
DA:257,10000
DA:260,10000
DA:262,0
DA:263,0
DA:268,10000
DA:269,10000
DA:271,10000
DA:272,10000
DA:277,20538
DA:280,20538
DA:282,20538
DA:283,20538
DA:285,20538
DA:287,0
DA:288,0
DA:289,0
DA:290,0
DA:291,0
DA:294,20538
DA:295,41022
DA:297,20538
DA:299,20538
DA:304,102
DA:307,102
DA:312,102
DA:313,28
DA:315,74
DA:316,74
DA:317,74
DA:318,74
DA:319,74
DA:325,39
DA:329,39
DA:331,39
DA:332,39
DA:334,39
DA:335,10
DA:336,39
DA:337,39
DA:338,39
DA:339,0
DA:340,0
DA:342,39
DA:343,39
DA:344,39
DA:345,39
DA:350,0
DA:353,0
DA:355,0
DA:356,0
DA:358,0
DA:359,0
DA:413,44
DA:416,44
DA:418,44
DA:420,34
DA:421,78
DA:424,10
DA:426,44
DA:427,44
DA:450,0
DA:454,0
DA:456,0
DA:457,0
DA:459,0
DA:461,0
DA:463,0
DA:464,0
DA:465,0
DA:468,0
DA:470,0
DA:471,0
DA:473,0
DA:474,0
DA:511,92
DA:515,92
DA:517,92
DA:518,92
DA:520,92
DA:522,63
DA:524,63
DA:537,63
DA:539,63
DA:540,0
DA:541,63
DA:542,92
DA:545,0
DA:548,29
DA:550,92
DA:551,92
DA:618,0
DA:623,0
DA:625,0
DA:626,0
DA:627,0
DA:630,0
DA:631,0
DA:632,0
DA:633,0
DA:634,0
DA:636,0
DA:639,0
DA:640,0
DA:645,0
DA:646,0
DA:647,0
DA:655,8
DA:658,8
DA:659,8
DA:660,8
DA:662,8
DA:663,8
DA:664,10
DA:665,8
DA:666,2
DA:668,8
LF:185
LH:87
end_of_record
TN:
SF:/usr/include/c++/13/bits/char_traits.h
FN:558,567,_ZNSt11char_traitsIwE4copyEPwPKwm
FNDA:0,_ZNSt11char_traitsIwE4copyEPwPKwm
FNF:1
FNH:0
DA:351,0
DA:354,0
DA:358,51818
DA:359,0
DA:374,0
DA:376,11037
DA:379,0
DA:389,11037
DA:393,0
DA:396,0
DA:399,76
DA:403,0
DA:405,0
DA:408,0
DA:411,8
DA:415,0
DA:417,0
DA:420,0
DA:423,0
DA:427,0
DA:429,9978
DA:432,0
DA:435,0
DA:439,0
DA:441,0
DA:444,0
DA:447,0
DA:493,0
DA:496,0
DA:500,0
DA:501,0
DA:512,0
DA:514,0
DA:517,0
DA:520,0
DA:524,0
DA:527,0
DA:530,0
DA:534,0
DA:536,0
DA:539,0
DA:542,0
DA:558,0
DA:560,0
DA:563,0
DA:566,0
DA:636,0
DA:637,0
DA:663,0
DA:664,0
DA:665,0
DA:781,0
DA:782,0
DA:803,0
DA:804,0
DA:805,0
DA:910,0
DA:911,0
DA:932,0
DA:933,0
DA:934,0
LF:61
LH:6
end_of_record
TN:
SF:/usr/include/c++/13/bits/charconv.h
FN:81,110,_ZNSt8__detail18__to_chars_10_implIjEEvPcjT_
FNDA:10000,_ZNSt8__detail18__to_chars_10_implIjEEvPcjT_
FNF:1
FNH:1
DA:55,10000
DA:61,10000
DA:62,10000
DA:63,10000
DA:64,10000
DA:65,0
DA:67,10000
DA:68,9000
DA:69,0
DA:70,0
DA:71,0
DA:72,0
DA:81,10000
DA:87,10000
DA:93,10000
DA:94,10000
DA:96,0
DA:97,0
DA:98,0
DA:99,0
DA:100,0
DA:102,10000
DA:104,9000
DA:105,9000
DA:106,9000
DA:109,1000
DA:110,10000
LF:27
LH:17
end_of_record
TN:
SF:/usr/include/c++/13/bits/chrono.h
FNF:0
FNH:0
DA:208,0
DA:212,0
DA:221,0
DA:273,23
DA:287,0
DA:573,0
DA:710,0
DA:716,11
DA:936,0
DA:949,0
DA:950,0
DA:1019,0
DA:1141,0
DA:1143,23
DA:1252,0
DA:1254,0
DA:1255,0
DA:1257,0
LF:18
LH:3
end_of_record
TN:
SF:/usr/include/c++/13/bits/functional_hash.h
FNF:0
FNH:0
DA:154,148572
DA:204,0
DA:206,0
LF:3
LH:1
end_of_record
TN:
SF:/usr/include/c++/13/bits/hashtable.h
FN:1421,1448,_ZNSt10_HashtableINSt7__cxx1112basic_stringIcSt11char_traitsIcESaIcEEES5_SaIS5_ENSt8__detail9_IdentityESt8equal_toIS5_ESt4hashIS5_ENS7_18_Mod_range_hashingENS7_20_Default_ranged_hashENS7_20_Prime_rehash_policyENS7_17_Hashtable_traitsILb1ELb1ELb1EEEE14_M_move_assignEOSI_St17integral_constantIbLb1EE
FN:1595,1610,_ZNSt10_HashtableINSt7__cxx1112basic_stringIcSt11char_traitsIcESaIcEEES5_SaIS5_ENSt8__detail9_IdentityESt8equal_toIS5_ESt4hashIS5_ENS7_18_Mod_range_hashingENS7_20_Default_ranged_hashENS7_20_Prime_rehash_policyENS7_17_Hashtable_traitsILb1ELb1ELb1EEEED2Ev
FN:1595,1610,_ZNSt10_HashtableINSt7__cxx1112basic_stringIcSt11char_traitsIcESaIcEEESt4pairIKS5_PN7testing9TestSuiteEESaISB_ENSt8__detail10_Select1stESt8equal_toIS5_ESt4hashIS5_ENSD_18_Mod_range_hashingENSD_20_Default_ranged_hashENSD_20_Prime_rehash_policyENSD_17_Hashtable_traitsILb1ELb0ELb1EEEED2Ev
FN:1595,1610,_ZNSt10_HashtableINSt7__cxx1112basic_stringIcSt11char_traitsIcESaIcEEESt4pairIKS5_S5_ESaIS8_ENSt8__detail10_Select1stESt8equal_toIS5_ESt4hashIS5_ENSA_18_Mod_range_hashingENSA_20_Default_ranged_hashENSA_20_Prime_rehash_policyENSA_17_Hashtable_traitsILb1ELb0ELb1EEEED2Ev
FN:1595,1610,_ZNSt10_HashtableINSt7__cxx1112basic_stringIcSt11char_traitsIcESaIcEEESt4pairIKS5_St14_List_iteratorIS5_EESaISA_ENSt8__detail10_Select1stESt8equal_toIS5_ESt4hashIS5_ENSC_18_Mod_range_hashingENSC_20_Default_ranged_hashENSC_20_Prime_rehash_policyENSC_17_Hashtable_traitsILb1ELb0ELb1EEEED2Ev
FN:1595,1610,_ZNSt10_HashtableINSt7__cxx1112basic_stringIcSt11char_traitsIcESaIcEEESt4pairIKS5_mESaIS8_ENSt8__detail10_Select1stESt8equal_toIS5_ESt4hashIS5_ENSA_18_Mod_range_hashingENSA_20_Default_ranged_hashENSA_20_Prime_rehash_policyENSA_17_Hashtable_traitsILb1ELb0ELb1EEEED2Ev
FN:1595,1610,_ZNSt10_HashtableIiSt4pairIKiNSt7__cxx1112basic_stringIcSt11char_traitsIcESaIcEEEESaIS8_ENSt8__detail10_Select1stESt8equal_toIiESt4hashIiENSA_18_Mod_range_hashingENSA_20_Default_ranged_hashENSA_20_Prime_rehash_policyENSA_17_Hashtable_traitsILb0ELb0ELb1EEEED2Ev
FN:1595,1610,_ZNSt10_HashtableIiSt4pairIKiSt14_List_iteratorIiEESaIS4_ENSt8__detail10_Select1stESt8equal_toIiESt4hashIiENS6_18_Mod_range_hashingENS6_20_Default_ranged_hashENS6_20_Prime_rehash_policyENS6_17_Hashtable_traitsILb0ELb0ELb1EEEED2Ev
FN:1595,1610,_ZNSt10_HashtableIiSt4pairIKiiESaIS2_ENSt8__detail10_Select1stESt8equal_toIiESt4hashIiENS4_18_Mod_range_hashingENS4_20_Default_ranged_hashENS4_20_Prime_rehash_policyENS4_17_Hashtable_traitsILb0ELb0ELb1EEEED2Ev
FN:1664,1680,_ZNSt10_HashtableINSt7__cxx1112basic_stringIcSt11char_traitsIcESaIcEEESt4pairIKS5_PN7testing9TestSuiteEESaISB_ENSt8__detail10_Select1stESt8equal_toIS5_ESt4hashIS5_ENSD_18_Mod_range_hashingENSD_20_Default_ranged_hashENSD_20_Prime_rehash_policyENSD_17_Hashtable_traitsILb1ELb0ELb1EEEE4findERS7_
FN:1664,1680,_ZNSt10_HashtableINSt7__cxx1112basic_stringIcSt11char_traitsIcESaIcEEESt4pairIKS5_S5_ESaIS8_ENSt8__detail10_Select1stESt8equal_toIS5_ESt4hashIS5_ENSA_18_Mod_range_hashingENSA_20_Default_ranged_hashENSA_20_Prime_rehash_policyENSA_17_Hashtable_traitsILb1ELb0ELb1EEEE4findERS7_
FN:1664,1680,_ZNSt10_HashtableINSt7__cxx1112basic_stringIcSt11char_traitsIcESaIcEEESt4pairIKS5_St14_List_iteratorIS5_EESaISA_ENSt8__detail10_Select1stESt8equal_toIS5_ESt4hashIS5_ENSC_18_Mod_range_hashingENSC_20_Default_ranged_hashENSC_20_Prime_rehash_policyENSC_17_Hashtable_traitsILb1ELb0ELb1EEEE4findERS7_
FN:1664,1680,_ZNSt10_HashtableIiSt4pairIKiNSt7__cxx1112basic_stringIcSt11char_traitsIcESaIcEEEESaIS8_ENSt8__detail10_Select1stESt8equal_toIiESt4hashIiENSA_18_Mod_range_hashingENSA_20_Default_ranged_hashENSA_20_Prime_rehash_policyENSA_17_Hashtable_traitsILb0ELb0ELb1EEEE4findERS1_
FN:1664,1680,_ZNSt10_HashtableIiSt4pairIKiSt14_List_iteratorIiEESaIS4_ENSt8__detail10_Select1stESt8equal_toIiESt4hashIiENS6_18_Mod_range_hashingENS6_20_Default_ranged_hashENS6_20_Prime_rehash_policyENS6_17_Hashtable_traitsILb0ELb0ELb1EEEE4findERS1_
FN:1664,1680,_ZNSt10_HashtableIiSt4pairIKiiESaIS2_ENSt8__detail10_Select1stESt8equal_toIiESt4hashIiENS4_18_Mod_range_hashingENS4_20_Default_ranged_hashENS4_20_Prime_rehash_policyENS4_17_Hashtable_traitsILb0ELb0ELb1EEEE4findERS1_
FN:1687,1703,_ZNKSt10_HashtableINSt7__cxx1112basic_stringIcSt11char_traitsIcESaIcEEES5_SaIS5_ENSt8__detail9_IdentityESt8equal_toIS5_ESt4hashIS5_ENS7_18_Mod_range_hashingENS7_20_Default_ranged_hashENS7_20_Prime_rehash_policyENS7_17_Hashtable_traitsILb1ELb1ELb1EEEE4findERKS5_
FN:1919,1939,_ZNSt10_HashtableINSt7__cxx1112basic_stringIcSt11char_traitsIcESaIcEEESt4pairIKS5_S5_ESaIS8_ENSt8__detail10_Select1stESt8equal_toIS5_ESt4hashIS5_ENSA_18_Mod_range_hashingENSA_20_Default_ranged_hashENSA_20_Prime_rehash_policyENSA_17_Hashtable_traitsILb1ELb0ELb1EEEE19_M_find_before_nodeERS7_
FN:1919,1939,_ZNSt10_HashtableINSt7__cxx1112basic_stringIcSt11char_traitsIcESaIcEEESt4pairIKS5_St14_List_iteratorIS5_EESaISA_ENSt8__detail10_Select1stESt8equal_toIS5_ESt4hashIS5_ENSC_18_Mod_range_hashingENSC_20_Default_ranged_hashENSC_20_Prime_rehash_policyENSC_17_Hashtable_traitsILb1ELb0ELb1EEEE19_M_find_before_nodeERS7_
FN:1919,1939,_ZNSt10_HashtableIiSt4pairIKiNSt7__cxx1112basic_stringIcSt11char_traitsIcESaIcEEEESaIS8_ENSt8__detail10_Select1stESt8equal_toIiESt4hashIiENSA_18_Mod_range_hashingENSA_20_Default_ranged_hashENSA_20_Prime_rehash_policyENSA_17_Hashtable_traitsILb0ELb0ELb1EEEE19_M_find_before_nodeERS1_
FN:1919,1939,_ZNSt10_HashtableIiSt4pairIKiSt14_List_iteratorIiEESaIS4_ENSt8__detail10_Select1stESt8equal_toIiESt4hashIiENS6_18_Mod_range_hashingENS6_20_Default_ranged_hashENS6_20_Prime_rehash_policyENS6_17_Hashtable_traitsILb0ELb0ELb1EEEE19_M_find_before_nodeERS1_
FN:1919,1939,_ZNSt10_HashtableIiSt4pairIKiiESaIS2_ENSt8__detail10_Select1stESt8equal_toIiESt4hashIiENS4_18_Mod_range_hashingENS4_20_Default_ranged_hashENS4_20_Prime_rehash_policyENS4_17_Hashtable_traitsILb0ELb0ELb1EEEE19_M_find_before_nodeERS1_
FN:1948,1970,_ZNKSt10_HashtableINSt7__cxx1112basic_stringIcSt11char_traitsIcESaIcEEES5_SaIS5_ENSt8__detail9_IdentityESt8equal_toIS5_ESt4hashIS5_ENS7_18_Mod_range_hashingENS7_20_Default_ranged_hashENS7_20_Prime_rehash_policyENS7_17_Hashtable_traitsILb1ELb1ELb1EEEE19_M_find_before_nodeEmRKS5_m
FN:1948,1970,_ZNKSt10_HashtableINSt7__cxx1112basic_stringIcSt11char_traitsIcESaIcEEESt4pairIKS5_PN7testing9TestSuiteEESaISB_ENSt8__detail10_Select1stESt8equal_toIS5_ESt4hashIS5_ENSD_18_Mod_range_hashingENSD_20_Default_ranged_hashENSD_20_Prime_rehash_policyENSD_17_Hashtable_traitsILb1ELb0ELb1EEEE19_M_find_before_nodeEmRS7_m
FN:1948,1970,_ZNKSt10_HashtableINSt7__cxx1112basic_stringIcSt11char_traitsIcESaIcEEESt4pairIKS5_S5_ESaIS8_ENSt8__detail10_Select1stESt8equal_toIS5_ESt4hashIS5_ENSA_18_Mod_range_hashingENSA_20_Default_ranged_hashENSA_20_Prime_rehash_policyENSA_17_Hashtable_traitsILb1ELb0ELb1EEEE19_M_find_before_nodeEmRS7_m
FN:1948,1970,_ZNKSt10_HashtableINSt7__cxx1112basic_stringIcSt11char_traitsIcESaIcEEESt4pairIKS5_St14_List_iteratorIS5_EESaISA_ENSt8__detail10_Select1stESt8equal_toIS5_ESt4hashIS5_ENSC_18_Mod_range_hashingENSC_20_Default_ranged_hashENSC_20_Prime_rehash_policyENSC_17_Hashtable_traitsILb1ELb0ELb1EEEE19_M_find_before_nodeEmRS7_m
FN:1948,1970,_ZNKSt10_HashtableIiSt4pairIKiNSt7__cxx1112basic_stringIcSt11char_traitsIcESaIcEEEESaIS8_ENSt8__detail10_Select1stESt8equal_toIiESt4hashIiENSA_18_Mod_range_hashingENSA_20_Default_ranged_hashENSA_20_Prime_rehash_policyENSA_17_Hashtable_traitsILb0ELb0ELb1EEEE19_M_find_before_nodeEmRS1_m
FN:1948,1970,_ZNKSt10_HashtableIiSt4pairIKiSt14_List_iteratorIiEESaIS4_ENSt8__detail10_Select1stESt8equal_toIiESt4hashIiENS6_18_Mod_range_hashingENS6_20_Default_ranged_hashENS6_20_Prime_rehash_policyENS6_17_Hashtable_traitsILb0ELb0ELb1EEEE19_M_find_before_nodeEmRS1_m
FN:1948,1970,_ZNKSt10_HashtableIiSt4pairIKiiESaIS2_ENSt8__detail10_Select1stESt8equal_toIiESt4hashIiENS4_18_Mod_range_hashingENS4_20_Default_ranged_hashENS4_20_Prime_rehash_policyENS4_17_Hashtable_traitsILb0ELb0ELb1EEEE19_M_find_before_nodeEmRS1_m
FN:1978,2000,_ZNKSt10_HashtableINSt7__cxx1112basic_stringIcSt11char_traitsIcESaIcEEES5_SaIS5_ENSt8__detail9_IdentityESt8equal_toIS5_ESt4hashIS5_ENS7_18_Mod_range_hashingENS7_20_Default_ranged_hashENS7_20_Prime_rehash_policyENS7_17_Hashtable_traitsILb1ELb1ELb1EEEE22_M_find_before_node_trIS5_EEPNS7_15_Hash_node_baseEmRKT_m
FN:2007,2033,_ZNSt10_HashtableINSt7__cxx1112basic_stringIcSt11char_traitsIcESaIcEEES5_SaIS5_ENSt8__detail9_IdentityESt8equal_toIS5_ESt4hashIS5_ENS7_18_Mod_range_hashingENS7_20_Default_ranged_hashENS7_20_Prime_rehash_policyENS7_17_Hashtable_traitsILb1ELb1ELb1EEEE22_M_insert_bucket_beginEmPNS7_10_Hash_nodeIS5_Lb1EEE
FN:2007,2033,_ZNSt10_HashtableINSt7__cxx1112basic_stringIcSt11char_traitsIcESaIcEEESt4pairIKS5_PN7testing9TestSuiteEESaISB_ENSt8__detail10_Select1stESt8equal_toIS5_ESt4hashIS5_ENSD_18_Mod_range_hashingENSD_20_Default_ranged_hashENSD_20_Prime_rehash_policyENSD_17_Hashtable_traitsILb1ELb0ELb1EEEE22_M_insert_bucket_beginEmPNSD_10_Hash_nodeISB_Lb1EEE
FN:2007,2033,_ZNSt10_HashtableINSt7__cxx1112basic_stringIcSt11char_traitsIcESaIcEEESt4pairIKS5_S5_ESaIS8_ENSt8__detail10_Select1stESt8equal_toIS5_ESt4hashIS5_ENSA_18_Mod_range_hashingENSA_20_Default_ranged_hashENSA_20_Prime_rehash_policyENSA_17_Hashtable_traitsILb1ELb0ELb1EEEE22_M_insert_bucket_beginEmPNSA_10_Hash_nodeIS8_Lb1EEE
FN:2007,2033,_ZNSt10_HashtableINSt7__cxx1112basic_stringIcSt11char_traitsIcESaIcEEESt4pairIKS5_St14_List_iteratorIS5_EESaISA_ENSt8__detail10_Select1stESt8equal_toIS5_ESt4hashIS5_ENSC_18_Mod_range_hashingENSC_20_Default_ranged_hashENSC_20_Prime_rehash_policyENSC_17_Hashtable_traitsILb1ELb0ELb1EEEE22_M_insert_bucket_beginEmPNSC_10_Hash_nodeISA_Lb1EEE
FN:2007,2033,_ZNSt10_HashtableIiSt4pairIKiNSt7__cxx1112basic_stringIcSt11char_traitsIcESaIcEEEESaIS8_ENSt8__detail10_Select1stESt8equal_toIiESt4hashIiENSA_18_Mod_range_hashingENSA_20_Default_ranged_hashENSA_20_Prime_rehash_policyENSA_17_Hashtable_traitsILb0ELb0ELb1EEEE22_M_insert_bucket_beginEmPNSA_10_Hash_nodeIS8_Lb0EEE
FN:2007,2033,_ZNSt10_HashtableIiSt4pairIKiSt14_List_iteratorIiEESaIS4_ENSt8__detail10_Select1stESt8equal_toIiESt4hashIiENS6_18_Mod_range_hashingENS6_20_Default_ranged_hashENS6_20_Prime_rehash_policyENS6_17_Hashtable_traitsILb0ELb0ELb1EEEE22_M_insert_bucket_beginEmPNS6_10_Hash_nodeIS4_Lb0EEE
FN:2007,2033,_ZNSt10_HashtableIiSt4pairIKiiESaIS2_ENSt8__detail10_Select1stESt8equal_toIiESt4hashIiENS4_18_Mod_range_hashingENS4_20_Default_ranged_hashENS4_20_Prime_rehash_policyENS4_17_Hashtable_traitsILb0ELb0ELb1EEEE22_M_insert_bucket_beginEmPNS4_10_Hash_nodeIS2_Lb0EEE
FN:2040,2057,_ZNSt10_HashtableINSt7__cxx1112basic_stringIcSt11char_traitsIcESaIcEEESt4pairIKS5_S5_ESaIS8_ENSt8__detail10_Select1stESt8equal_toIS5_ESt4hashIS5_ENSA_18_Mod_range_hashingENSA_20_Default_ranged_hashENSA_20_Prime_rehash_policyENSA_17_Hashtable_traitsILb1ELb0ELb1EEEE22_M_remove_bucket_beginEmPNSA_10_Hash_nodeIS8_Lb1EEEm
FN:2040,2057,_ZNSt10_HashtableINSt7__cxx1112basic_stringIcSt11char_traitsIcESaIcEEESt4pairIKS5_St14_List_iteratorIS5_EESaISA_ENSt8__detail10_Select1stESt8equal_toIS5_ESt4hashIS5_ENSC_18_Mod_range_hashingENSC_20_Default_ranged_hashENSC_20_Prime_rehash_policyENSC_17_Hashtable_traitsILb1ELb0ELb1EEEE22_M_remove_bucket_beginEmPNSC_10_Hash_nodeISA_Lb1EEEm
FN:2040,2057,_ZNSt10_HashtableIiSt4pairIKiNSt7__cxx1112basic_stringIcSt11char_traitsIcESaIcEEEESaIS8_ENSt8__detail10_Select1stESt8equal_toIiESt4hashIiENSA_18_Mod_range_hashingENSA_20_Default_ranged_hashENSA_20_Prime_rehash_policyENSA_17_Hashtable_traitsILb0ELb0ELb1EEEE22_M_remove_bucket_beginEmPNSA_10_Hash_nodeIS8_Lb0EEEm
FN:2040,2057,_ZNSt10_HashtableIiSt4pairIKiSt14_List_iteratorIiEESaIS4_ENSt8__detail10_Select1stESt8equal_toIiESt4hashIiENS6_18_Mod_range_hashingENS6_20_Default_ranged_hashENS6_20_Prime_rehash_policyENS6_17_Hashtable_traitsILb0ELb0ELb1EEEE22_M_remove_bucket_beginEmPNS6_10_Hash_nodeIS4_Lb0EEEm
FN:2040,2057,_ZNSt10_HashtableIiSt4pairIKiiESaIS2_ENSt8__detail10_Select1stESt8equal_toIiESt4hashIiENS4_18_Mod_range_hashingENS4_20_Default_ranged_hashENS4_20_Prime_rehash_policyENS4_17_Hashtable_traitsILb0ELb0ELb1EEEE22_M_remove_bucket_beginEmPNS4_10_Hash_nodeIS2_Lb0EEEm
FN:2081,2108,_ZNSt10_HashtableINSt7__cxx1112basic_stringIcSt11char_traitsIcESaIcEEESt4pairIKS5_PN7testing9TestSuiteEESaISB_ENSt8__detail10_Select1stESt8equal_toIS5_ESt4hashIS5_ENSD_18_Mod_range_hashingENSD_20_Default_ranged_hashENSD_20_Prime_rehash_policyENSD_17_Hashtable_traitsILb1ELb0ELb1EEEE10_M_emplaceIJRS7_RKSA_EEES6_INSD_14_Node_iteratorISB_Lb0ELb1EEEbESt17integral_constantIbLb1EEDpOT_
FN:2166,2189,_ZNSt10_HashtableINSt7__cxx1112basic_stringIcSt11char_traitsIcESaIcEEES5_SaIS5_ENSt8__detail9_IdentityESt8equal_toIS5_ESt4hashIS5_ENS7_18_Mod_range_hashingENS7_20_Default_ranged_hashENS7_20_Prime_rehash_policyENS7_17_Hashtable_traitsILb1ELb1ELb1EEEE21_M_insert_unique_nodeEmmPNS7_10_Hash_nodeIS5_Lb1EEEm
FN:2166,2189,_ZNSt10_HashtableINSt7__cxx1112basic_stringIcSt11char_traitsIcESaIcEEESt4pairIKS5_PN7testing9TestSuiteEESaISB_ENSt8__detail10_Select1stESt8equal_toIS5_ESt4hashIS5_ENSD_18_Mod_range_hashingENSD_20_Default_ranged_hashENSD_20_Prime_rehash_policyENSD_17_Hashtable_traitsILb1ELb0ELb1EEEE21_M_insert_unique_nodeEmmPNSD_10_Hash_nodeISB_Lb1EEEm
FN:2166,2189,_ZNSt10_HashtableINSt7__cxx1112basic_stringIcSt11char_traitsIcESaIcEEESt4pairIKS5_S5_ESaIS8_ENSt8__detail10_Select1stESt8equal_toIS5_ESt4hashIS5_ENSA_18_Mod_range_hashingENSA_20_Default_ranged_hashENSA_20_Prime_rehash_policyENSA_17_Hashtable_traitsILb1ELb0ELb1EEEE21_M_insert_unique_nodeEmmPNSA_10_Hash_nodeIS8_Lb1EEEm
FN:2166,2189,_ZNSt10_HashtableINSt7__cxx1112basic_stringIcSt11char_traitsIcESaIcEEESt4pairIKS5_St14_List_iteratorIS5_EESaISA_ENSt8__detail10_Select1stESt8equal_toIS5_ESt4hashIS5_ENSC_18_Mod_range_hashingENSC_20_Default_ranged_hashENSC_20_Prime_rehash_policyENSC_17_Hashtable_traitsILb1ELb0ELb1EEEE21_M_insert_unique_nodeEmmPNSC_10_Hash_nodeISA_Lb1EEEm
FN:2166,2189,_ZNSt10_HashtableIiSt4pairIKiNSt7__cxx1112basic_stringIcSt11char_traitsIcESaIcEEEESaIS8_ENSt8__detail10_Select1stESt8equal_toIiESt4hashIiENSA_18_Mod_range_hashingENSA_20_Default_ranged_hashENSA_20_Prime_rehash_policyENSA_17_Hashtable_traitsILb0ELb0ELb1EEEE21_M_insert_unique_nodeEmmPNSA_10_Hash_nodeIS8_Lb0EEEm
FN:2166,2189,_ZNSt10_HashtableIiSt4pairIKiSt14_List_iteratorIiEESaIS4_ENSt8__detail10_Select1stESt8equal_toIiESt4hashIiENS6_18_Mod_range_hashingENS6_20_Default_ranged_hashENS6_20_Prime_rehash_policyENS6_17_Hashtable_traitsILb0ELb0ELb1EEEE21_M_insert_unique_nodeEmmPNS6_10_Hash_nodeIS4_Lb0EEEm
FN:2166,2189,_ZNSt10_HashtableIiSt4pairIKiiESaIS2_ENSt8__detail10_Select1stESt8equal_toIiESt4hashIiENS4_18_Mod_range_hashingENS4_20_Default_ranged_hashENS4_20_Prime_rehash_policyENS4_17_Hashtable_traitsILb0ELb0ELb1EEEE21_M_insert_unique_nodeEmmPNS4_10_Hash_nodeIS2_Lb0EEEm
FN:2253,2281,_ZNSt10_HashtableINSt7__cxx1112basic_stringIcSt11char_traitsIcESaIcEEES5_SaIS5_ENSt8__detail9_IdentityESt8equal_toIS5_ESt4hashIS5_ENS7_18_Mod_range_hashingENS7_20_Default_ranged_hashENS7_20_Prime_rehash_policyENS7_17_Hashtable_traitsILb1ELb1ELb1EEEE16_M_insert_uniqueIS5_S5_NS7_10_AllocNodeISaINS7_10_Hash_nodeIS5_Lb1EEEEEEEESt4pairINS7_14_Node_iteratorIS5_Lb1ELb1EEEbEOT_OT0_RKT1_
FN:2316,2329,_ZNSt10_HashtableINSt7__cxx1112basic_stringIcSt11char_traitsIcESaIcEEESt4pairIKS5_S5_ESaIS8_ENSt8__detail10_Select1stESt8equal_toIS5_ESt4hashIS5_ENSA_18_Mod_range_hashingENSA_20_Default_ranged_hashENSA_20_Prime_rehash_policyENSA_17_Hashtable_traitsILb1ELb0ELb1EEEE5eraseENSA_20_Node_const_iteratorIS8_Lb0ELb1EEE
FN:2316,2329,_ZNSt10_HashtableINSt7__cxx1112basic_stringIcSt11char_traitsIcESaIcEEESt4pairIKS5_St14_List_iteratorIS5_EESaISA_ENSt8__detail10_Select1stESt8equal_toIS5_ESt4hashIS5_ENSC_18_Mod_range_hashingENSC_20_Default_ranged_hashENSC_20_Prime_rehash_policyENSC_17_Hashtable_traitsILb1ELb0ELb1EEEE5eraseENSC_20_Node_const_iteratorISA_Lb0ELb1EEE
FN:2316,2329,_ZNSt10_HashtableIiSt4pairIKiNSt7__cxx1112basic_stringIcSt11char_traitsIcESaIcEEEESaIS8_ENSt8__detail10_Select1stESt8equal_toIiESt4hashIiENSA_18_Mod_range_hashingENSA_20_Default_ranged_hashENSA_20_Prime_rehash_policyENSA_17_Hashtable_traitsILb0ELb0ELb1EEEE5eraseENSA_20_Node_const_iteratorIS8_Lb0ELb0EEE
FN:2316,2329,_ZNSt10_HashtableIiSt4pairIKiSt14_List_iteratorIiEESaIS4_ENSt8__detail10_Select1stESt8equal_toIiESt4hashIiENS6_18_Mod_range_hashingENS6_20_Default_ranged_hashENS6_20_Prime_rehash_policyENS6_17_Hashtable_traitsILb0ELb0ELb1EEEE5eraseENS6_20_Node_const_iteratorIS4_Lb0ELb0EEE
FN:2316,2329,_ZNSt10_HashtableIiSt4pairIKiiESaIS2_ENSt8__detail10_Select1stESt8equal_toIiESt4hashIiENS4_18_Mod_range_hashingENS4_20_Default_ranged_hashENS4_20_Prime_rehash_policyENS4_17_Hashtable_traitsILb0ELb0ELb1EEEE5eraseENS4_20_Node_const_iteratorIS2_Lb0ELb0EEE
FN:2336,2357,_ZNSt10_HashtableINSt7__cxx1112basic_stringIcSt11char_traitsIcESaIcEEESt4pairIKS5_S5_ESaIS8_ENSt8__detail10_Select1stESt8equal_toIS5_ESt4hashIS5_ENSA_18_Mod_range_hashingENSA_20_Default_ranged_hashENSA_20_Prime_rehash_policyENSA_17_Hashtable_traitsILb1ELb0ELb1EEEE8_M_eraseEmPNSA_15_Hash_node_baseEPNSA_10_Hash_nodeIS8_Lb1EEE
FN:2336,2357,_ZNSt10_HashtableINSt7__cxx1112basic_stringIcSt11char_traitsIcESaIcEEESt4pairIKS5_St14_List_iteratorIS5_EESaISA_ENSt8__detail10_Select1stESt8equal_toIS5_ESt4hashIS5_ENSC_18_Mod_range_hashingENSC_20_Default_ranged_hashENSC_20_Prime_rehash_policyENSC_17_Hashtable_traitsILb1ELb0ELb1EEEE8_M_eraseEmPNSC_15_Hash_node_baseEPNSC_10_Hash_nodeISA_Lb1EEE
FN:2336,2357,_ZNSt10_HashtableIiSt4pairIKiNSt7__cxx1112basic_stringIcSt11char_traitsIcESaIcEEEESaIS8_ENSt8__detail10_Select1stESt8equal_toIiESt4hashIiENSA_18_Mod_range_hashingENSA_20_Default_ranged_hashENSA_20_Prime_rehash_policyENSA_17_Hashtable_traitsILb0ELb0ELb1EEEE8_M_eraseEmPNSA_15_Hash_node_baseEPNSA_10_Hash_nodeIS8_Lb0EEE
FN:2336,2357,_ZNSt10_HashtableIiSt4pairIKiSt14_List_iteratorIiEESaIS4_ENSt8__detail10_Select1stESt8equal_toIiESt4hashIiENS6_18_Mod_range_hashingENS6_20_Default_ranged_hashENS6_20_Prime_rehash_policyENS6_17_Hashtable_traitsILb0ELb0ELb1EEEE8_M_eraseEmPNS6_15_Hash_node_baseEPNS6_10_Hash_nodeIS4_Lb0EEE
FN:2336,2357,_ZNSt10_HashtableIiSt4pairIKiiESaIS2_ENSt8__detail10_Select1stESt8equal_toIiESt4hashIiENS4_18_Mod_range_hashingENS4_20_Default_ranged_hashENS4_20_Prime_rehash_policyENS4_17_Hashtable_traitsILb0ELb0ELb1EEEE8_M_eraseEmPNS4_15_Hash_node_baseEPNS4_10_Hash_nodeIS2_Lb0EEE
FN:2364,2398,_ZNSt10_HashtableINSt7__cxx1112basic_stringIcSt11char_traitsIcESaIcEEESt4pairIKS5_S5_ESaIS8_ENSt8__detail10_Select1stESt8equal_toIS5_ESt4hashIS5_ENSA_18_Mod_range_hashingENSA_20_Default_ranged_hashENSA_20_Prime_rehash_policyENSA_17_Hashtable_traitsILb1ELb0ELb1EEEE8_M_eraseESt17integral_constantIbLb1EERS7_
FN:2364,2398,_ZNSt10_HashtableINSt7__cxx1112basic_stringIcSt11char_traitsIcESaIcEEESt4pairIKS5_St14_List_iteratorIS5_EESaISA_ENSt8__detail10_Select1stESt8equal_toIS5_ESt4hashIS5_ENSC_18_Mod_range_hashingENSC_20_Default_ranged_hashENSC_20_Prime_rehash_policyENSC_17_Hashtable_traitsILb1ELb0ELb1EEEE8_M_eraseESt17integral_constantIbLb1EERS7_
FN:2364,2398,_ZNSt10_HashtableIiSt4pairIKiNSt7__cxx1112basic_stringIcSt11char_traitsIcESaIcEEEESaIS8_ENSt8__detail10_Select1stESt8equal_toIiESt4hashIiENSA_18_Mod_range_hashingENSA_20_Default_ranged_hashENSA_20_Prime_rehash_policyENSA_17_Hashtable_traitsILb0ELb0ELb1EEEE8_M_eraseESt17integral_constantIbLb1EERS1_
FN:2364,2398,_ZNSt10_HashtableIiSt4pairIKiSt14_List_iteratorIiEESaIS4_ENSt8__detail10_Select1stESt8equal_toIiESt4hashIiENS6_18_Mod_range_hashingENS6_20_Default_ranged_hashENS6_20_Prime_rehash_policyENS6_17_Hashtable_traitsILb0ELb0ELb1EEEE8_M_eraseESt17integral_constantIbLb1EERS1_
FN:2364,2398,_ZNSt10_HashtableIiSt4pairIKiiESaIS2_ENSt8__detail10_Select1stESt8equal_toIiESt4hashIiENS4_18_Mod_range_hashingENS4_20_Default_ranged_hashENS4_20_Prime_rehash_policyENS4_17_Hashtable_traitsILb0ELb0ELb1EEEE8_M_eraseESt17integral_constantIbLb1EERS1_
FN:2520,2529,_ZNSt10_HashtableINSt7__cxx1112basic_stringIcSt11char_traitsIcESaIcEEES5_SaIS5_ENSt8__detail9_IdentityESt8equal_toIS5_ESt4hashIS5_ENS7_18_Mod_range_hashingENS7_20_Default_ranged_hashENS7_20_Prime_rehash_policyENS7_17_Hashtable_traitsILb1ELb1ELb1EEEE5clearEv
FN:2520,2529,_ZNSt10_HashtableINSt7__cxx1112basic_stringIcSt11char_traitsIcESaIcEEESt4pairIKS5_PN7testing9TestSuiteEESaISB_ENSt8__detail10_Select1stESt8equal_toIS5_ESt4hashIS5_ENSD_18_Mod_range_hashingENSD_20_Default_ranged_hashENSD_20_Prime_rehash_policyENSD_17_Hashtable_traitsILb1ELb0ELb1EEEE5clearEv
FN:2520,2529,_ZNSt10_HashtableINSt7__cxx1112basic_stringIcSt11char_traitsIcESaIcEEESt4pairIKS5_S5_ESaIS8_ENSt8__detail10_Select1stESt8equal_toIS5_ESt4hashIS5_ENSA_18_Mod_range_hashingENSA_20_Default_ranged_hashENSA_20_Prime_rehash_policyENSA_17_Hashtable_traitsILb1ELb0ELb1EEEE5clearEv
FN:2520,2529,_ZNSt10_HashtableINSt7__cxx1112basic_stringIcSt11char_traitsIcESaIcEEESt4pairIKS5_St14_List_iteratorIS5_EESaISA_ENSt8__detail10_Select1stESt8equal_toIS5_ESt4hashIS5_ENSC_18_Mod_range_hashingENSC_20_Default_ranged_hashENSC_20_Prime_rehash_policyENSC_17_Hashtable_traitsILb1ELb0ELb1EEEE5clearEv
FN:2520,2529,_ZNSt10_HashtableINSt7__cxx1112basic_stringIcSt11char_traitsIcESaIcEEESt4pairIKS5_mESaIS8_ENSt8__detail10_Select1stESt8equal_toIS5_ESt4hashIS5_ENSA_18_Mod_range_hashingENSA_20_Default_ranged_hashENSA_20_Prime_rehash_policyENSA_17_Hashtable_traitsILb1ELb0ELb1EEEE5clearEv
FN:2520,2529,_ZNSt10_HashtableIiSt4pairIKiNSt7__cxx1112basic_stringIcSt11char_traitsIcESaIcEEEESaIS8_ENSt8__detail10_Select1stESt8equal_toIiESt4hashIiENSA_18_Mod_range_hashingENSA_20_Default_ranged_hashENSA_20_Prime_rehash_policyENSA_17_Hashtable_traitsILb0ELb0ELb1EEEE5clearEv
FN:2520,2529,_ZNSt10_HashtableIiSt4pairIKiSt14_List_iteratorIiEESaIS4_ENSt8__detail10_Select1stESt8equal_toIiESt4hashIiENS6_18_Mod_range_hashingENS6_20_Default_ranged_hashENS6_20_Prime_rehash_policyENS6_17_Hashtable_traitsILb0ELb0ELb1EEEE5clearEv
FN:2520,2529,_ZNSt10_HashtableIiSt4pairIKiiESaIS2_ENSt8__detail10_Select1stESt8equal_toIiESt4hashIiENS4_18_Mod_range_hashingENS4_20_Default_ranged_hashENS4_20_Prime_rehash_policyENS4_17_Hashtable_traitsILb0ELb0ELb1EEEE5clearEv
FN:2559,2574,_ZNSt10_HashtableINSt7__cxx1112basic_stringIcSt11char_traitsIcESaIcEEES5_SaIS5_ENSt8__detail9_IdentityESt8equal_toIS5_ESt4hashIS5_ENS7_18_Mod_range_hashingENS7_20_Default_ranged_hashENS7_20_Prime_rehash_policyENS7_17_Hashtable_traitsILb1ELb1ELb1EEEE9_M_rehashEmRKm
FN:2559,2574,_ZNSt10_HashtableINSt7__cxx1112basic_stringIcSt11char_traitsIcESaIcEEESt4pairIKS5_PN7testing9TestSuiteEESaISB_ENSt8__detail10_Select1stESt8equal_toIS5_ESt4hashIS5_ENSD_18_Mod_range_hashingENSD_20_Default_ranged_hashENSD_20_Prime_rehash_policyENSD_17_Hashtable_traitsILb1ELb0ELb1EEEE9_M_rehashEmRKm
FN:2559,2574,_ZNSt10_HashtableINSt7__cxx1112basic_stringIcSt11char_traitsIcESaIcEEESt4pairIKS5_S5_ESaIS8_ENSt8__detail10_Select1stESt8equal_toIS5_ESt4hashIS5_ENSA_18_Mod_range_hashingENSA_20_Default_ranged_hashENSA_20_Prime_rehash_policyENSA_17_Hashtable_traitsILb1ELb0ELb1EEEE9_M_rehashEmRKm
FN:2559,2574,_ZNSt10_HashtableINSt7__cxx1112basic_stringIcSt11char_traitsIcESaIcEEESt4pairIKS5_St14_List_iteratorIS5_EESaISA_ENSt8__detail10_Select1stESt8equal_toIS5_ESt4hashIS5_ENSC_18_Mod_range_hashingENSC_20_Default_ranged_hashENSC_20_Prime_rehash_policyENSC_17_Hashtable_traitsILb1ELb0ELb1EEEE9_M_rehashEmRKm
FN:2559,2574,_ZNSt10_HashtableIiSt4pairIKiNSt7__cxx1112basic_stringIcSt11char_traitsIcESaIcEEEESaIS8_ENSt8__detail10_Select1stESt8equal_toIiESt4hashIiENSA_18_Mod_range_hashingENSA_20_Default_ranged_hashENSA_20_Prime_rehash_policyENSA_17_Hashtable_traitsILb0ELb0ELb1EEEE9_M_rehashEmRKm
FN:2559,2574,_ZNSt10_HashtableIiSt4pairIKiSt14_List_iteratorIiEESaIS4_ENSt8__detail10_Select1stESt8equal_toIiESt4hashIiENS6_18_Mod_range_hashingENS6_20_Default_ranged_hashENS6_20_Prime_rehash_policyENS6_17_Hashtable_traitsILb0ELb0ELb1EEEE9_M_rehashEmRKm
FN:2559,2574,_ZNSt10_HashtableIiSt4pairIKiiESaIS2_ENSt8__detail10_Select1stESt8equal_toIiESt4hashIiENS4_18_Mod_range_hashingENS4_20_Default_ranged_hashENS4_20_Prime_rehash_policyENS4_17_Hashtable_traitsILb0ELb0ELb1EEEE9_M_rehashEmRKm
FN:2582,2616,_ZNSt10_HashtableINSt7__cxx1112basic_stringIcSt11char_traitsIcESaIcEEES5_SaIS5_ENSt8__detail9_IdentityESt8equal_toIS5_ESt4hashIS5_ENS7_18_Mod_range_hashingENS7_20_Default_ranged_hashENS7_20_Prime_rehash_policyENS7_17_Hashtable_traitsILb1ELb1ELb1EEEE13_M_rehash_auxEmSt17integral_constantIbLb1EE
FN:2582,2616,_ZNSt10_HashtableINSt7__cxx1112basic_stringIcSt11char_traitsIcESaIcEEESt4pairIKS5_PN7testing9TestSuiteEESaISB_ENSt8__detail10_Select1stESt8equal_toIS5_ESt4hashIS5_ENSD_18_Mod_range_hashingENSD_20_Default_ranged_hashENSD_20_Prime_rehash_policyENSD_17_Hashtable_traitsILb1ELb0ELb1EEEE13_M_rehash_auxEmSt17integral_constantIbLb1EE
FN:2582,2616,_ZNSt10_HashtableINSt7__cxx1112basic_stringIcSt11char_traitsIcESaIcEEESt4pairIKS5_S5_ESaIS8_ENSt8__detail10_Select1stESt8equal_toIS5_ESt4hashIS5_ENSA_18_Mod_range_hashingENSA_20_Default_ranged_hashENSA_20_Prime_rehash_policyENSA_17_Hashtable_traitsILb1ELb0ELb1EEEE13_M_rehash_auxEmSt17integral_constantIbLb1EE
FN:2582,2616,_ZNSt10_HashtableINSt7__cxx1112basic_stringIcSt11char_traitsIcESaIcEEESt4pairIKS5_St14_List_iteratorIS5_EESaISA_ENSt8__detail10_Select1stESt8equal_toIS5_ESt4hashIS5_ENSC_18_Mod_range_hashingENSC_20_Default_ranged_hashENSC_20_Prime_rehash_policyENSC_17_Hashtable_traitsILb1ELb0ELb1EEEE13_M_rehash_auxEmSt17integral_constantIbLb1EE
FN:2582,2616,_ZNSt10_HashtableIiSt4pairIKiNSt7__cxx1112basic_stringIcSt11char_traitsIcESaIcEEEESaIS8_ENSt8__detail10_Select1stESt8equal_toIiESt4hashIiENSA_18_Mod_range_hashingENSA_20_Default_ranged_hashENSA_20_Prime_rehash_policyENSA_17_Hashtable_traitsILb0ELb0ELb1EEEE13_M_rehash_auxEmSt17integral_constantIbLb1EE
FN:2582,2616,_ZNSt10_HashtableIiSt4pairIKiSt14_List_iteratorIiEESaIS4_ENSt8__detail10_Select1stESt8equal_toIiESt4hashIiENS6_18_Mod_range_hashingENS6_20_Default_ranged_hashENS6_20_Prime_rehash_policyENS6_17_Hashtable_traitsILb0ELb0ELb1EEEE13_M_rehash_auxEmSt17integral_constantIbLb1EE
FN:2582,2616,_ZNSt10_HashtableIiSt4pairIKiiESaIS2_ENSt8__detail10_Select1stESt8equal_toIiESt4hashIiENS4_18_Mod_range_hashingENS4_20_Default_ranged_hashENS4_20_Prime_rehash_policyENS4_17_Hashtable_traitsILb0ELb0ELb1EEEE13_M_rehash_auxEmSt17integral_constantIbLb1EE
FN:311,311,_ZNSt10_HashtableINSt7__cxx1112basic_stringIcSt11char_traitsIcESaIcEEES5_SaIS5_ENSt8__detail9_IdentityESt8equal_toIS5_ESt4hashIS5_ENS7_18_Mod_range_hashingENS7_20_Default_ranged_hashENS7_20_Prime_rehash_policyENS7_17_Hashtable_traitsILb1ELb1ELb1EEEE12_Scoped_nodeD2Ev
FN:311,311,_ZNSt10_HashtableINSt7__cxx1112basic_stringIcSt11char_traitsIcESaIcEEESt4pairIKS5_PN7testing9TestSuiteEESaISB_ENSt8__detail10_Select1stESt8equal_toIS5_ESt4hashIS5_ENSD_18_Mod_range_hashingENSD_20_Default_ranged_hashENSD_20_Prime_rehash_policyENSD_17_Hashtable_traitsILb1ELb0ELb1EEEE12_Scoped_nodeD2Ev
FN:311,311,_ZNSt10_HashtableINSt7__cxx1112basic_stringIcSt11char_traitsIcESaIcEEESt4pairIKS5_St14_List_iteratorIS5_EESaISA_ENSt8__detail10_Select1stESt8equal_toIS5_ESt4hashIS5_ENSC_18_Mod_range_hashingENSC_20_Default_ranged_hashENSC_20_Prime_rehash_policyENSC_17_Hashtable_traitsILb1ELb0ELb1EEEE12_Scoped_nodeD2Ev
FN:311,311,_ZNSt10_HashtableIiSt4pairIKiNSt7__cxx1112basic_stringIcSt11char_traitsIcESaIcEEEESaIS8_ENSt8__detail10_Select1stESt8equal_toIiESt4hashIiENSA_18_Mod_range_hashingENSA_20_Default_ranged_hashENSA_20_Prime_rehash_policyENSA_17_Hashtable_traitsILb0ELb0ELb1EEEE12_Scoped_nodeD2Ev
FNDA:2,_ZNSt10_HashtableINSt7__cxx1112basic_stringIcSt11char_traitsIcESaIcEEES5_SaIS5_ENSt8__detail9_IdentityESt8equal_toIS5_ESt4hashIS5_ENS7_18_Mod_range_hashingENS7_20_Default_ranged_hashENS7_20_Prime_rehash_policyENS7_17_Hashtable_traitsILb1ELb1ELb1EEEE14_M_move_assignEOSI_St17integral_constantIbLb1EE
FNDA:8,_ZNSt10_HashtableINSt7__cxx1112basic_stringIcSt11char_traitsIcESaIcEEES5_SaIS5_ENSt8__detail9_IdentityESt8equal_toIS5_ESt4hashIS5_ENS7_18_Mod_range_hashingENS7_20_Default_ranged_hashENS7_20_Prime_rehash_policyENS7_17_Hashtable_traitsILb1ELb1ELb1EEEED2Ev
FNDA:1,_ZNSt10_HashtableINSt7__cxx1112basic_stringIcSt11char_traitsIcESaIcEEESt4pairIKS5_PN7testing9TestSuiteEESaISB_ENSt8__detail10_Select1stESt8equal_toIS5_ESt4hashIS5_ENSD_18_Mod_range_hashingENSD_20_Default_ranged_hashENSD_20_Prime_rehash_policyENSD_17_Hashtable_traitsILb1ELb0ELb1EEEED2Ev
FNDA:6,_ZNSt10_HashtableINSt7__cxx1112basic_stringIcSt11char_traitsIcESaIcEEESt4pairIKS5_S5_ESaIS8_ENSt8__detail10_Select1stESt8equal_toIS5_ESt4hashIS5_ENSA_18_Mod_range_hashingENSA_20_Default_ranged_hashENSA_20_Prime_rehash_policyENSA_17_Hashtable_traitsILb1ELb0ELb1EEEED2Ev
FNDA:3,_ZNSt10_HashtableINSt7__cxx1112basic_stringIcSt11char_traitsIcESaIcEEESt4pairIKS5_St14_List_iteratorIS5_EESaISA_ENSt8__detail10_Select1stESt8equal_toIS5_ESt4hashIS5_ENSC_18_Mod_range_hashingENSC_20_Default_ranged_hashENSC_20_Prime_rehash_policyENSC_17_Hashtable_traitsILb1ELb0ELb1EEEED2Ev
FNDA:1,_ZNSt10_HashtableINSt7__cxx1112basic_stringIcSt11char_traitsIcESaIcEEESt4pairIKS5_mESaIS8_ENSt8__detail10_Select1stESt8equal_toIS5_ESt4hashIS5_ENSA_18_Mod_range_hashingENSA_20_Default_ranged_hashENSA_20_Prime_rehash_policyENSA_17_Hashtable_traitsILb1ELb0ELb1EEEED2Ev
FNDA:4,_ZNSt10_HashtableIiSt4pairIKiNSt7__cxx1112basic_stringIcSt11char_traitsIcESaIcEEEESaIS8_ENSt8__detail10_Select1stESt8equal_toIiESt4hashIiENSA_18_Mod_range_hashingENSA_20_Default_ranged_hashENSA_20_Prime_rehash_policyENSA_17_Hashtable_traitsILb0ELb0ELb1EEEED2Ev
FNDA:6,_ZNSt10_HashtableIiSt4pairIKiSt14_List_iteratorIiEESaIS4_ENSt8__detail10_Select1stESt8equal_toIiESt4hashIiENS6_18_Mod_range_hashingENS6_20_Default_ranged_hashENS6_20_Prime_rehash_policyENS6_17_Hashtable_traitsILb0ELb0ELb1EEEED2Ev
FNDA:8,_ZNSt10_HashtableIiSt4pairIKiiESaIS2_ENSt8__detail10_Select1stESt8equal_toIiESt4hashIiENS4_18_Mod_range_hashingENS4_20_Default_ranged_hashENS4_20_Prime_rehash_policyENS4_17_Hashtable_traitsILb0ELb0ELb1EEEED2Ev
FNDA:1,_ZNSt10_HashtableINSt7__cxx1112basic_stringIcSt11char_traitsIcESaIcEEESt4pairIKS5_PN7testing9TestSuiteEESaISB_ENSt8__detail10_Select1stESt8equal_toIS5_ESt4hashIS5_ENSD_18_Mod_range_hashingENSD_20_Default_ranged_hashENSD_20_Prime_rehash_policyENSD_17_Hashtable_traitsILb1ELb0ELb1EEEE4findERS7_
FNDA:9,_ZNSt10_HashtableINSt7__cxx1112basic_stringIcSt11char_traitsIcESaIcEEESt4pairIKS5_S5_ESaIS8_ENSt8__detail10_Select1stESt8equal_toIS5_ESt4hashIS5_ENSA_18_Mod_range_hashingENSA_20_Default_ranged_hashENSA_20_Prime_rehash_policyENSA_17_Hashtable_traitsILb1ELb0ELb1EEEE4findERS7_
FNDA:19,_ZNSt10_HashtableINSt7__cxx1112basic_stringIcSt11char_traitsIcESaIcEEESt4pairIKS5_St14_List_iteratorIS5_EESaISA_ENSt8__detail10_Select1stESt8equal_toIS5_ESt4hashIS5_ENSC_18_Mod_range_hashingENSC_20_Default_ranged_hashENSC_20_Prime_rehash_policyENSC_17_Hashtable_traitsILb1ELb0ELb1EEEE4findERS7_
FNDA:12566,_ZNSt10_HashtableIiSt4pairIKiNSt7__cxx1112basic_stringIcSt11char_traitsIcESaIcEEEESaIS8_ENSt8__detail10_Select1stESt8equal_toIiESt4hashIiENSA_18_Mod_range_hashingENSA_20_Default_ranged_hashENSA_20_Prime_rehash_policyENSA_17_Hashtable_traitsILb0ELb0ELb1EEEE4findERS1_
FNDA:43383,_ZNSt10_HashtableIiSt4pairIKiSt14_List_iteratorIiEESaIS4_ENSt8__detail10_Select1stESt8equal_toIiESt4hashIiENS6_18_Mod_range_hashingENS6_20_Default_ranged_hashENS6_20_Prime_rehash_policyENS6_17_Hashtable_traitsILb0ELb0ELb1EEEE4findERS1_
FNDA:40,_ZNSt10_HashtableIiSt4pairIKiiESaIS2_ENSt8__detail10_Select1stESt8equal_toIiESt4hashIiENS4_18_Mod_range_hashingENS4_20_Default_ranged_hashENS4_20_Prime_rehash_policyENS4_17_Hashtable_traitsILb0ELb0ELb1EEEE4findERS1_
FNDA:39,_ZNKSt10_HashtableINSt7__cxx1112basic_stringIcSt11char_traitsIcESaIcEEES5_SaIS5_ENSt8__detail9_IdentityESt8equal_toIS5_ESt4hashIS5_ENS7_18_Mod_range_hashingENS7_20_Default_ranged_hashENS7_20_Prime_rehash_policyENS7_17_Hashtable_traitsILb1ELb1ELb1EEEE4findERKS5_
FNDA:2,_ZNSt10_HashtableINSt7__cxx1112basic_stringIcSt11char_traitsIcESaIcEEESt4pairIKS5_S5_ESaIS8_ENSt8__detail10_Select1stESt8equal_toIS5_ESt4hashIS5_ENSA_18_Mod_range_hashingENSA_20_Default_ranged_hashENSA_20_Prime_rehash_policyENSA_17_Hashtable_traitsILb1ELb0ELb1EEEE19_M_find_before_nodeERS7_
FNDA:1,_ZNSt10_HashtableINSt7__cxx1112basic_stringIcSt11char_traitsIcESaIcEEESt4pairIKS5_St14_List_iteratorIS5_EESaISA_ENSt8__detail10_Select1stESt8equal_toIS5_ESt4hashIS5_ENSC_18_Mod_range_hashingENSC_20_Default_ranged_hashENSC_20_Prime_rehash_policyENSC_17_Hashtable_traitsILb1ELb0ELb1EEEE19_M_find_before_nodeERS7_
FNDA:0,_ZNSt10_HashtableIiSt4pairIKiNSt7__cxx1112basic_stringIcSt11char_traitsIcESaIcEEEESaIS8_ENSt8__detail10_Select1stESt8equal_toIiESt4hashIiENSA_18_Mod_range_hashingENSA_20_Default_ranged_hashENSA_20_Prime_rehash_policyENSA_17_Hashtable_traitsILb0ELb0ELb1EEEE19_M_find_before_nodeERS1_
FNDA:0,_ZNSt10_HashtableIiSt4pairIKiSt14_List_iteratorIiEESaIS4_ENSt8__detail10_Select1stESt8equal_toIiESt4hashIiENS6_18_Mod_range_hashingENS6_20_Default_ranged_hashENS6_20_Prime_rehash_policyENS6_17_Hashtable_traitsILb0ELb0ELb1EEEE19_M_find_before_nodeERS1_
FNDA:0,_ZNSt10_HashtableIiSt4pairIKiiESaIS2_ENSt8__detail10_Select1stESt8equal_toIiESt4hashIiENS4_18_Mod_range_hashingENS4_20_Default_ranged_hashENS4_20_Prime_rehash_policyENS4_17_Hashtable_traitsILb0ELb0ELb1EEEE19_M_find_before_nodeERS1_
FNDA:0,_ZNKSt10_HashtableINSt7__cxx1112basic_stringIcSt11char_traitsIcESaIcEEES5_SaIS5_ENSt8__detail9_IdentityESt8equal_toIS5_ESt4hashIS5_ENS7_18_Mod_range_hashingENS7_20_Default_ranged_hashENS7_20_Prime_rehash_policyENS7_17_Hashtable_traitsILb1ELb1ELb1EEEE19_M_find_before_nodeEmRKS5_m
FNDA:0,_ZNKSt10_HashtableINSt7__cxx1112basic_stringIcSt11char_traitsIcESaIcEEESt4pairIKS5_PN7testing9TestSuiteEESaISB_ENSt8__detail10_Select1stESt8equal_toIS5_ESt4hashIS5_ENSD_18_Mod_range_hashingENSD_20_Default_ranged_hashENSD_20_Prime_rehash_policyENSD_17_Hashtable_traitsILb1ELb0ELb1EEEE19_M_find_before_nodeEmRS7_m
FNDA:14,_ZNKSt10_HashtableINSt7__cxx1112basic_stringIcSt11char_traitsIcESaIcEEESt4pairIKS5_S5_ESaIS8_ENSt8__detail10_Select1stESt8equal_toIS5_ESt4hashIS5_ENSA_18_Mod_range_hashingENSA_20_Default_ranged_hashENSA_20_Prime_rehash_policyENSA_17_Hashtable_traitsILb1ELb0ELb1EEEE19_M_find_before_nodeEmRS7_m
FNDA:4,_ZNKSt10_HashtableINSt7__cxx1112basic_stringIcSt11char_traitsIcESaIcEEESt4pairIKS5_St14_List_iteratorIS5_EESaISA_ENSt8__detail10_Select1stESt8equal_toIS5_ESt4hashIS5_ENSC_18_Mod_range_hashingENSC_20_Default_ranged_hashENSC_20_Prime_rehash_policyENSC_17_Hashtable_traitsILb1ELb0ELb1EEEE19_M_find_before_nodeEmRS7_m
FNDA:50143,_ZNKSt10_HashtableIiSt4pairIKiNSt7__cxx1112basic_stringIcSt11char_traitsIcESaIcEEEESaIS8_ENSt8__detail10_Select1stESt8equal_toIiESt4hashIiENSA_18_Mod_range_hashingENSA_20_Default_ranged_hashENSA_20_Prime_rehash_policyENSA_17_Hashtable_traitsILb0ELb0ELb1EEEE19_M_find_before_nodeEmRS1_m
FNDA:55401,_ZNKSt10_HashtableIiSt4pairIKiSt14_List_iteratorIiEESaIS4_ENSt8__detail10_Select1stESt8equal_toIiESt4hashIiENS6_18_Mod_range_hashingENS6_20_Default_ranged_hashENS6_20_Prime_rehash_policyENS6_17_Hashtable_traitsILb0ELb0ELb1EEEE19_M_find_before_nodeEmRS1_m
FNDA:128,_ZNKSt10_HashtableIiSt4pairIKiiESaIS2_ENSt8__detail10_Select1stESt8equal_toIiESt4hashIiENS4_18_Mod_range_hashingENS4_20_Default_ranged_hashENS4_20_Prime_rehash_policyENS4_17_Hashtable_traitsILb0ELb0ELb1EEEE19_M_find_before_nodeEmRS1_m
FNDA:0,_ZNKSt10_HashtableINSt7__cxx1112basic_stringIcSt11char_traitsIcESaIcEEES5_SaIS5_ENSt8__detail9_IdentityESt8equal_toIS5_ESt4hashIS5_ENS7_18_Mod_range_hashingENS7_20_Default_ranged_hashENS7_20_Prime_rehash_policyENS7_17_Hashtable_traitsILb1ELb1ELb1EEEE22_M_find_before_node_trIS5_EEPNS7_15_Hash_node_baseEmRKT_m
FNDA:0,_ZNSt10_HashtableINSt7__cxx1112basic_stringIcSt11char_traitsIcESaIcEEES5_SaIS5_ENSt8__detail9_IdentityESt8equal_toIS5_ESt4hashIS5_ENS7_18_Mod_range_hashingENS7_20_Default_ranged_hashENS7_20_Prime_rehash_policyENS7_17_Hashtable_traitsILb1ELb1ELb1EEEE22_M_insert_bucket_beginEmPNS7_10_Hash_nodeIS5_Lb1EEE
FNDA:1,_ZNSt10_HashtableINSt7__cxx1112basic_stringIcSt11char_traitsIcESaIcEEESt4pairIKS5_PN7testing9TestSuiteEESaISB_ENSt8__detail10_Select1stESt8equal_toIS5_ESt4hashIS5_ENSD_18_Mod_range_hashingENSD_20_Default_ranged_hashENSD_20_Prime_rehash_policyENSD_17_Hashtable_traitsILb1ELb0ELb1EEEE22_M_insert_bucket_beginEmPNSD_10_Hash_nodeISB_Lb1EEE
FNDA:8,_ZNSt10_HashtableINSt7__cxx1112basic_stringIcSt11char_traitsIcESaIcEEESt4pairIKS5_S5_ESaIS8_ENSt8__detail10_Select1stESt8equal_toIS5_ESt4hashIS5_ENSA_18_Mod_range_hashingENSA_20_Default_ranged_hashENSA_20_Prime_rehash_policyENSA_17_Hashtable_traitsILb1ELb0ELb1EEEE22_M_insert_bucket_beginEmPNSA_10_Hash_nodeIS8_Lb1EEE
FNDA:4,_ZNSt10_HashtableINSt7__cxx1112basic_stringIcSt11char_traitsIcESaIcEEESt4pairIKS5_St14_List_iteratorIS5_EESaISA_ENSt8__detail10_Select1stESt8equal_toIS5_ESt4hashIS5_ENSC_18_Mod_range_hashingENSC_20_Default_ranged_hashENSC_20_Prime_rehash_policyENSC_17_Hashtable_traitsILb1ELb0ELb1EEEE22_M_insert_bucket_beginEmPNSC_10_Hash_nodeISA_Lb1EEE
FNDA:7562,_ZNSt10_HashtableIiSt4pairIKiNSt7__cxx1112basic_stringIcSt11char_traitsIcESaIcEEEESaIS8_ENSt8__detail10_Select1stESt8equal_toIiESt4hashIiENSA_18_Mod_range_hashingENSA_20_Default_ranged_hashENSA_20_Prime_rehash_policyENSA_17_Hashtable_traitsILb0ELb0ELb1EEEE22_M_insert_bucket_beginEmPNSA_10_Hash_nodeIS8_Lb0EEE
FNDA:6500,_ZNSt10_HashtableIiSt4pairIKiSt14_List_iteratorIiEESaIS4_ENSt8__detail10_Select1stESt8equal_toIiESt4hashIiENS6_18_Mod_range_hashingENS6_20_Default_ranged_hashENS6_20_Prime_rehash_policyENS6_17_Hashtable_traitsILb0ELb0ELb1EEEE22_M_insert_bucket_beginEmPNS6_10_Hash_nodeIS4_Lb0EEE
FNDA:54,_ZNSt10_HashtableIiSt4pairIKiiESaIS2_ENSt8__detail10_Select1stESt8equal_toIiESt4hashIiENS4_18_Mod_range_hashingENS4_20_Default_ranged_hashENS4_20_Prime_rehash_policyENS4_17_Hashtable_traitsILb0ELb0ELb1EEEE22_M_insert_bucket_beginEmPNS4_10_Hash_nodeIS2_Lb0EEE
FNDA:3,_ZNSt10_HashtableINSt7__cxx1112basic_stringIcSt11char_traitsIcESaIcEEESt4pairIKS5_S5_ESaIS8_ENSt8__detail10_Select1stESt8equal_toIS5_ESt4hashIS5_ENSA_18_Mod_range_hashingENSA_20_Default_ranged_hashENSA_20_Prime_rehash_policyENSA_17_Hashtable_traitsILb1ELb0ELb1EEEE22_M_remove_bucket_beginEmPNSA_10_Hash_nodeIS8_Lb1EEEm
FNDA:2,_ZNSt10_HashtableINSt7__cxx1112basic_stringIcSt11char_traitsIcESaIcEEESt4pairIKS5_St14_List_iteratorIS5_EESaISA_ENSt8__detail10_Select1stESt8equal_toIS5_ESt4hashIS5_ENSC_18_Mod_range_hashingENSC_20_Default_ranged_hashENSC_20_Prime_rehash_policyENSC_17_Hashtable_traitsILb1ELb0ELb1EEEE22_M_remove_bucket_beginEmPNSC_10_Hash_nodeISA_Lb1EEEm
FNDA:5030,_ZNSt10_HashtableIiSt4pairIKiNSt7__cxx1112basic_stringIcSt11char_traitsIcESaIcEEEESaIS8_ENSt8__detail10_Select1stESt8equal_toIiESt4hashIiENSA_18_Mod_range_hashingENSA_20_Default_ranged_hashENSA_20_Prime_rehash_policyENSA_17_Hashtable_traitsILb0ELb0ELb1EEEE22_M_remove_bucket_beginEmPNSA_10_Hash_nodeIS8_Lb0EEEm
FNDA:4059,_ZNSt10_HashtableIiSt4pairIKiSt14_List_iteratorIiEESaIS4_ENSt8__detail10_Select1stESt8equal_toIiESt4hashIiENS6_18_Mod_range_hashingENS6_20_Default_ranged_hashENS6_20_Prime_rehash_policyENS6_17_Hashtable_traitsILb0ELb0ELb1EEEE22_M_remove_bucket_beginEmPNS6_10_Hash_nodeIS4_Lb0EEEm
FNDA:29,_ZNSt10_HashtableIiSt4pairIKiiESaIS2_ENSt8__detail10_Select1stESt8equal_toIiESt4hashIiENS4_18_Mod_range_hashingENS4_20_Default_ranged_hashENS4_20_Prime_rehash_policyENS4_17_Hashtable_traitsILb0ELb0ELb1EEEE22_M_remove_bucket_beginEmPNS4_10_Hash_nodeIS2_Lb0EEEm
FNDA:1,_ZNSt10_HashtableINSt7__cxx1112basic_stringIcSt11char_traitsIcESaIcEEESt4pairIKS5_PN7testing9TestSuiteEESaISB_ENSt8__detail10_Select1stESt8equal_toIS5_ESt4hashIS5_ENSD_18_Mod_range_hashingENSD_20_Default_ranged_hashENSD_20_Prime_rehash_policyENSD_17_Hashtable_traitsILb1ELb0ELb1EEEE10_M_emplaceIJRS7_RKSA_EEES6_INSD_14_Node_iteratorISB_Lb0ELb1EEEbESt17integral_constantIbLb1EEDpOT_
FNDA:0,_ZNSt10_HashtableINSt7__cxx1112basic_stringIcSt11char_traitsIcESaIcEEES5_SaIS5_ENSt8__detail9_IdentityESt8equal_toIS5_ESt4hashIS5_ENS7_18_Mod_range_hashingENS7_20_Default_ranged_hashENS7_20_Prime_rehash_policyENS7_17_Hashtable_traitsILb1ELb1ELb1EEEE21_M_insert_unique_nodeEmmPNS7_10_Hash_nodeIS5_Lb1EEEm
FNDA:1,_ZNSt10_HashtableINSt7__cxx1112basic_stringIcSt11char_traitsIcESaIcEEESt4pairIKS5_PN7testing9TestSuiteEESaISB_ENSt8__detail10_Select1stESt8equal_toIS5_ESt4hashIS5_ENSD_18_Mod_range_hashingENSD_20_Default_ranged_hashENSD_20_Prime_rehash_policyENSD_17_Hashtable_traitsILb1ELb0ELb1EEEE21_M_insert_unique_nodeEmmPNSD_10_Hash_nodeISB_Lb1EEEm
FNDA:8,_ZNSt10_HashtableINSt7__cxx1112basic_stringIcSt11char_traitsIcESaIcEEESt4pairIKS5_S5_ESaIS8_ENSt8__detail10_Select1stESt8equal_toIS5_ESt4hashIS5_ENSA_18_Mod_range_hashingENSA_20_Default_ranged_hashENSA_20_Prime_rehash_policyENSA_17_Hashtable_traitsILb1ELb0ELb1EEEE21_M_insert_unique_nodeEmmPNSA_10_Hash_nodeIS8_Lb1EEEm
FNDA:4,_ZNSt10_HashtableINSt7__cxx1112basic_stringIcSt11char_traitsIcESaIcEEESt4pairIKS5_St14_List_iteratorIS5_EESaISA_ENSt8__detail10_Select1stESt8equal_toIS5_ESt4hashIS5_ENSC_18_Mod_range_hashingENSC_20_Default_ranged_hashENSC_20_Prime_rehash_policyENSC_17_Hashtable_traitsILb1ELb0ELb1EEEE21_M_insert_unique_nodeEmmPNSC_10_Hash_nodeISA_Lb1EEEm
FNDA:7562,_ZNSt10_HashtableIiSt4pairIKiNSt7__cxx1112basic_stringIcSt11char_traitsIcESaIcEEEESaIS8_ENSt8__detail10_Select1stESt8equal_toIiESt4hashIiENSA_18_Mod_range_hashingENSA_20_Default_ranged_hashENSA_20_Prime_rehash_policyENSA_17_Hashtable_traitsILb0ELb0ELb1EEEE21_M_insert_unique_nodeEmmPNSA_10_Hash_nodeIS8_Lb0EEEm
FNDA:6500,_ZNSt10_HashtableIiSt4pairIKiSt14_List_iteratorIiEESaIS4_ENSt8__detail10_Select1stESt8equal_toIiESt4hashIiENS6_18_Mod_range_hashingENS6_20_Default_ranged_hashENS6_20_Prime_rehash_policyENS6_17_Hashtable_traitsILb0ELb0ELb1EEEE21_M_insert_unique_nodeEmmPNS6_10_Hash_nodeIS4_Lb0EEEm
FNDA:54,_ZNSt10_HashtableIiSt4pairIKiiESaIS2_ENSt8__detail10_Select1stESt8equal_toIiESt4hashIiENS4_18_Mod_range_hashingENS4_20_Default_ranged_hashENS4_20_Prime_rehash_policyENS4_17_Hashtable_traitsILb0ELb0ELb1EEEE21_M_insert_unique_nodeEmmPNS4_10_Hash_nodeIS2_Lb0EEEm
FNDA:0,_ZNSt10_HashtableINSt7__cxx1112basic_stringIcSt11char_traitsIcESaIcEEES5_SaIS5_ENSt8__detail9_IdentityESt8equal_toIS5_ESt4hashIS5_ENS7_18_Mod_range_hashingENS7_20_Default_ranged_hashENS7_20_Prime_rehash_policyENS7_17_Hashtable_traitsILb1ELb1ELb1EEEE16_M_insert_uniqueIS5_S5_NS7_10_AllocNodeISaINS7_10_Hash_nodeIS5_Lb1EEEEEEEESt4pairINS7_14_Node_iteratorIS5_Lb1ELb1EEEbEOT_OT0_RKT1_
FNDA:1,_ZNSt10_HashtableINSt7__cxx1112basic_stringIcSt11char_traitsIcESaIcEEESt4pairIKS5_S5_ESaIS8_ENSt8__detail10_Select1stESt8equal_toIS5_ESt4hashIS5_ENSA_18_Mod_range_hashingENSA_20_Default_ranged_hashENSA_20_Prime_rehash_policyENSA_17_Hashtable_traitsILb1ELb0ELb1EEEE5eraseENSA_20_Node_const_iteratorIS8_Lb0ELb1EEE
FNDA:1,_ZNSt10_HashtableINSt7__cxx1112basic_stringIcSt11char_traitsIcESaIcEEESt4pairIKS5_St14_List_iteratorIS5_EESaISA_ENSt8__detail10_Select1stESt8equal_toIS5_ESt4hashIS5_ENSC_18_Mod_range_hashingENSC_20_Default_ranged_hashENSC_20_Prime_rehash_policyENSC_17_Hashtable_traitsILb1ELb0ELb1EEEE5eraseENSC_20_Node_const_iteratorISA_Lb0ELb1EEE
FNDA:1000,_ZNSt10_HashtableIiSt4pairIKiNSt7__cxx1112basic_stringIcSt11char_traitsIcESaIcEEEESaIS8_ENSt8__detail10_Select1stESt8equal_toIiESt4hashIiENSA_18_Mod_range_hashingENSA_20_Default_ranged_hashENSA_20_Prime_rehash_policyENSA_17_Hashtable_traitsILb0ELb0ELb1EEEE5eraseENSA_20_Node_const_iteratorIS8_Lb0ELb0EEE
FNDA:954,_ZNSt10_HashtableIiSt4pairIKiSt14_List_iteratorIiEESaIS4_ENSt8__detail10_Select1stESt8equal_toIiESt4hashIiENS6_18_Mod_range_hashingENS6_20_Default_ranged_hashENS6_20_Prime_rehash_policyENS6_17_Hashtable_traitsILb0ELb0ELb1EEEE5eraseENS6_20_Node_const_iteratorIS4_Lb0ELb0EEE
FNDA:1,_ZNSt10_HashtableIiSt4pairIKiiESaIS2_ENSt8__detail10_Select1stESt8equal_toIiESt4hashIiENS4_18_Mod_range_hashingENS4_20_Default_ranged_hashENS4_20_Prime_rehash_policyENS4_17_Hashtable_traitsILb0ELb0ELb1EEEE5eraseENS4_20_Node_const_iteratorIS2_Lb0ELb0EEE
FNDA:3,_ZNSt10_HashtableINSt7__cxx1112basic_stringIcSt11char_traitsIcESaIcEEESt4pairIKS5_S5_ESaIS8_ENSt8__detail10_Select1stESt8equal_toIS5_ESt4hashIS5_ENSA_18_Mod_range_hashingENSA_20_Default_ranged_hashENSA_20_Prime_rehash_policyENSA_17_Hashtable_traitsILb1ELb0ELb1EEEE8_M_eraseEmPNSA_15_Hash_node_baseEPNSA_10_Hash_nodeIS8_Lb1EEE
FNDA:2,_ZNSt10_HashtableINSt7__cxx1112basic_stringIcSt11char_traitsIcESaIcEEESt4pairIKS5_St14_List_iteratorIS5_EESaISA_ENSt8__detail10_Select1stESt8equal_toIS5_ESt4hashIS5_ENSC_18_Mod_range_hashingENSC_20_Default_ranged_hashENSC_20_Prime_rehash_policyENSC_17_Hashtable_traitsILb1ELb0ELb1EEEE8_M_eraseEmPNSC_15_Hash_node_baseEPNSC_10_Hash_nodeISA_Lb1EEE
FNDA:7456,_ZNSt10_HashtableIiSt4pairIKiNSt7__cxx1112basic_stringIcSt11char_traitsIcESaIcEEEESaIS8_ENSt8__detail10_Select1stESt8equal_toIiESt4hashIiENSA_18_Mod_range_hashingENSA_20_Default_ranged_hashENSA_20_Prime_rehash_policyENSA_17_Hashtable_traitsILb0ELb0ELb1EEEE8_M_eraseEmPNSA_15_Hash_node_baseEPNSA_10_Hash_nodeIS8_Lb0EEE
FNDA:6484,_ZNSt10_HashtableIiSt4pairIKiSt14_List_iteratorIiEESaIS4_ENSt8__detail10_Select1stESt8equal_toIiESt4hashIiENS6_18_Mod_range_hashingENS6_20_Default_ranged_hashENS6_20_Prime_rehash_policyENS6_17_Hashtable_traitsILb0ELb0ELb1EEEE8_M_eraseEmPNS6_15_Hash_node_baseEPNS6_10_Hash_nodeIS4_Lb0EEE
FNDA:29,_ZNSt10_HashtableIiSt4pairIKiiESaIS2_ENSt8__detail10_Select1stESt8equal_toIiESt4hashIiENS4_18_Mod_range_hashingENS4_20_Default_ranged_hashENS4_20_Prime_rehash_policyENS4_17_Hashtable_traitsILb0ELb0ELb1EEEE8_M_eraseEmPNS4_15_Hash_node_baseEPNS4_10_Hash_nodeIS2_Lb0EEE
FNDA:2,_ZNSt10_HashtableINSt7__cxx1112basic_stringIcSt11char_traitsIcESaIcEEESt4pairIKS5_S5_ESaIS8_ENSt8__detail10_Select1stESt8equal_toIS5_ESt4hashIS5_ENSA_18_Mod_range_hashingENSA_20_Default_ranged_hashENSA_20_Prime_rehash_policyENSA_17_Hashtable_traitsILb1ELb0ELb1EEEE8_M_eraseESt17integral_constantIbLb1EERS7_
FNDA:1,_ZNSt10_HashtableINSt7__cxx1112basic_stringIcSt11char_traitsIcESaIcEEESt4pairIKS5_St14_List_iteratorIS5_EESaISA_ENSt8__detail10_Select1stESt8equal_toIS5_ESt4hashIS5_ENSC_18_Mod_range_hashingENSC_20_Default_ranged_hashENSC_20_Prime_rehash_policyENSC_17_Hashtable_traitsILb1ELb0ELb1EEEE8_M_eraseESt17integral_constantIbLb1EERS7_
FNDA:6456,_ZNSt10_HashtableIiSt4pairIKiNSt7__cxx1112basic_stringIcSt11char_traitsIcESaIcEEEESaIS8_ENSt8__detail10_Select1stESt8equal_toIiESt4hashIiENSA_18_Mod_range_hashingENSA_20_Default_ranged_hashENSA_20_Prime_rehash_policyENSA_17_Hashtable_traitsILb0ELb0ELb1EEEE8_M_eraseESt17integral_constantIbLb1EERS1_
FNDA:5530,_ZNSt10_HashtableIiSt4pairIKiSt14_List_iteratorIiEESaIS4_ENSt8__detail10_Select1stESt8equal_toIiESt4hashIiENS6_18_Mod_range_hashingENS6_20_Default_ranged_hashENS6_20_Prime_rehash_policyENS6_17_Hashtable_traitsILb0ELb0ELb1EEEE8_M_eraseESt17integral_constantIbLb1EERS1_
FNDA:28,_ZNSt10_HashtableIiSt4pairIKiiESaIS2_ENSt8__detail10_Select1stESt8equal_toIiESt4hashIiENS4_18_Mod_range_hashingENS4_20_Default_ranged_hashENS4_20_Prime_rehash_policyENS4_17_Hashtable_traitsILb0ELb0ELb1EEEE8_M_eraseESt17integral_constantIbLb1EERS1_
FNDA:8,_ZNSt10_HashtableINSt7__cxx1112basic_stringIcSt11char_traitsIcESaIcEEES5_SaIS5_ENSt8__detail9_IdentityESt8equal_toIS5_ESt4hashIS5_ENS7_18_Mod_range_hashingENS7_20_Default_ranged_hashENS7_20_Prime_rehash_policyENS7_17_Hashtable_traitsILb1ELb1ELb1EEEE5clearEv
FNDA:1,_ZNSt10_HashtableINSt7__cxx1112basic_stringIcSt11char_traitsIcESaIcEEESt4pairIKS5_PN7testing9TestSuiteEESaISB_ENSt8__detail10_Select1stESt8equal_toIS5_ESt4hashIS5_ENSD_18_Mod_range_hashingENSD_20_Default_ranged_hashENSD_20_Prime_rehash_policyENSD_17_Hashtable_traitsILb1ELb0ELb1EEEE5clearEv
FNDA:6,_ZNSt10_HashtableINSt7__cxx1112basic_stringIcSt11char_traitsIcESaIcEEESt4pairIKS5_S5_ESaIS8_ENSt8__detail10_Select1stESt8equal_toIS5_ESt4hashIS5_ENSA_18_Mod_range_hashingENSA_20_Default_ranged_hashENSA_20_Prime_rehash_policyENSA_17_Hashtable_traitsILb1ELb0ELb1EEEE5clearEv
FNDA:3,_ZNSt10_HashtableINSt7__cxx1112basic_stringIcSt11char_traitsIcESaIcEEESt4pairIKS5_St14_List_iteratorIS5_EESaISA_ENSt8__detail10_Select1stESt8equal_toIS5_ESt4hashIS5_ENSC_18_Mod_range_hashingENSC_20_Default_ranged_hashENSC_20_Prime_rehash_policyENSC_17_Hashtable_traitsILb1ELb0ELb1EEEE5clearEv
FNDA:1,_ZNSt10_HashtableINSt7__cxx1112basic_stringIcSt11char_traitsIcESaIcEEESt4pairIKS5_mESaIS8_ENSt8__detail10_Select1stESt8equal_toIS5_ESt4hashIS5_ENSA_18_Mod_range_hashingENSA_20_Default_ranged_hashENSA_20_Prime_rehash_policyENSA_17_Hashtable_traitsILb1ELb0ELb1EEEE5clearEv
FNDA:4,_ZNSt10_HashtableIiSt4pairIKiNSt7__cxx1112basic_stringIcSt11char_traitsIcESaIcEEEESaIS8_ENSt8__detail10_Select1stESt8equal_toIiESt4hashIiENSA_18_Mod_range_hashingENSA_20_Default_ranged_hashENSA_20_Prime_rehash_policyENSA_17_Hashtable_traitsILb0ELb0ELb1EEEE5clearEv
FNDA:6,_ZNSt10_HashtableIiSt4pairIKiSt14_List_iteratorIiEESaIS4_ENSt8__detail10_Select1stESt8equal_toIiESt4hashIiENS6_18_Mod_range_hashingENS6_20_Default_ranged_hashENS6_20_Prime_rehash_policyENS6_17_Hashtable_traitsILb0ELb0ELb1EEEE5clearEv
FNDA:8,_ZNSt10_HashtableIiSt4pairIKiiESaIS2_ENSt8__detail10_Select1stESt8equal_toIiESt4hashIiENS4_18_Mod_range_hashingENS4_20_Default_ranged_hashENS4_20_Prime_rehash_policyENS4_17_Hashtable_traitsILb0ELb0ELb1EEEE5clearEv
FNDA:0,_ZNSt10_HashtableINSt7__cxx1112basic_stringIcSt11char_traitsIcESaIcEEES5_SaIS5_ENSt8__detail9_IdentityESt8equal_toIS5_ESt4hashIS5_ENS7_18_Mod_range_hashingENS7_20_Default_ranged_hashENS7_20_Prime_rehash_policyENS7_17_Hashtable_traitsILb1ELb1ELb1EEEE9_M_rehashEmRKm
FNDA:1,_ZNSt10_HashtableINSt7__cxx1112basic_stringIcSt11char_traitsIcESaIcEEESt4pairIKS5_PN7testing9TestSuiteEESaISB_ENSt8__detail10_Select1stESt8equal_toIS5_ESt4hashIS5_ENSD_18_Mod_range_hashingENSD_20_Default_ranged_hashENSD_20_Prime_rehash_policyENSD_17_Hashtable_traitsILb1ELb0ELb1EEEE9_M_rehashEmRKm
FNDA:6,_ZNSt10_HashtableINSt7__cxx1112basic_stringIcSt11char_traitsIcESaIcEEESt4pairIKS5_S5_ESaIS8_ENSt8__detail10_Select1stESt8equal_toIS5_ESt4hashIS5_ENSA_18_Mod_range_hashingENSA_20_Default_ranged_hashENSA_20_Prime_rehash_policyENSA_17_Hashtable_traitsILb1ELb0ELb1EEEE9_M_rehashEmRKm
FNDA:3,_ZNSt10_HashtableINSt7__cxx1112basic_stringIcSt11char_traitsIcESaIcEEESt4pairIKS5_St14_List_iteratorIS5_EESaISA_ENSt8__detail10_Select1stESt8equal_toIS5_ESt4hashIS5_ENSC_18_Mod_range_hashingENSC_20_Default_ranged_hashENSC_20_Prime_rehash_policyENSC_17_Hashtable_traitsILb1ELb0ELb1EEEE9_M_rehashEmRKm
FNDA:5,_ZNSt10_HashtableIiSt4pairIKiNSt7__cxx1112basic_stringIcSt11char_traitsIcESaIcEEEESaIS8_ENSt8__detail10_Select1stESt8equal_toIiESt4hashIiENSA_18_Mod_range_hashingENSA_20_Default_ranged_hashENSA_20_Prime_rehash_policyENSA_17_Hashtable_traitsILb0ELb0ELb1EEEE9_M_rehashEmRKm
FNDA:3,_ZNSt10_HashtableIiSt4pairIKiSt14_List_iteratorIiEESaIS4_ENSt8__detail10_Select1stESt8equal_toIiESt4hashIiENS6_18_Mod_range_hashingENS6_20_Default_ranged_hashENS6_20_Prime_rehash_policyENS6_17_Hashtable_traitsILb0ELb0ELb1EEEE9_M_rehashEmRKm
FNDA:4,_ZNSt10_HashtableIiSt4pairIKiiESaIS2_ENSt8__detail10_Select1stESt8equal_toIiESt4hashIiENS4_18_Mod_range_hashingENS4_20_Default_ranged_hashENS4_20_Prime_rehash_policyENS4_17_Hashtable_traitsILb0ELb0ELb1EEEE9_M_rehashEmRKm
FNDA:0,_ZNSt10_HashtableINSt7__cxx1112basic_stringIcSt11char_traitsIcESaIcEEES5_SaIS5_ENSt8__detail9_IdentityESt8equal_toIS5_ESt4hashIS5_ENS7_18_Mod_range_hashingENS7_20_Default_ranged_hashENS7_20_Prime_rehash_policyENS7_17_Hashtable_traitsILb1ELb1ELb1EEEE13_M_rehash_auxEmSt17integral_constantIbLb1EE
FNDA:1,_ZNSt10_HashtableINSt7__cxx1112basic_stringIcSt11char_traitsIcESaIcEEESt4pairIKS5_PN7testing9TestSuiteEESaISB_ENSt8__detail10_Select1stESt8equal_toIS5_ESt4hashIS5_ENSD_18_Mod_range_hashingENSD_20_Default_ranged_hashENSD_20_Prime_rehash_policyENSD_17_Hashtable_traitsILb1ELb0ELb1EEEE13_M_rehash_auxEmSt17integral_constantIbLb1EE
FNDA:6,_ZNSt10_HashtableINSt7__cxx1112basic_stringIcSt11char_traitsIcESaIcEEESt4pairIKS5_S5_ESaIS8_ENSt8__detail10_Select1stESt8equal_toIS5_ESt4hashIS5_ENSA_18_Mod_range_hashingENSA_20_Default_ranged_hashENSA_20_Prime_rehash_policyENSA_17_Hashtable_traitsILb1ELb0ELb1EEEE13_M_rehash_auxEmSt17integral_constantIbLb1EE
FNDA:3,_ZNSt10_HashtableINSt7__cxx1112basic_stringIcSt11char_traitsIcESaIcEEESt4pairIKS5_St14_List_iteratorIS5_EESaISA_ENSt8__detail10_Select1stESt8equal_toIS5_ESt4hashIS5_ENSC_18_Mod_range_hashingENSC_20_Default_ranged_hashENSC_20_Prime_rehash_policyENSC_17_Hashtable_traitsILb1ELb0ELb1EEEE13_M_rehash_auxEmSt17integral_constantIbLb1EE
FNDA:5,_ZNSt10_HashtableIiSt4pairIKiNSt7__cxx1112basic_stringIcSt11char_traitsIcESaIcEEEESaIS8_ENSt8__detail10_Select1stESt8equal_toIiESt4hashIiENSA_18_Mod_range_hashingENSA_20_Default_ranged_hashENSA_20_Prime_rehash_policyENSA_17_Hashtable_traitsILb0ELb0ELb1EEEE13_M_rehash_auxEmSt17integral_constantIbLb1EE
FNDA:3,_ZNSt10_HashtableIiSt4pairIKiSt14_List_iteratorIiEESaIS4_ENSt8__detail10_Select1stESt8equal_toIiESt4hashIiENS6_18_Mod_range_hashingENS6_20_Default_ranged_hashENS6_20_Prime_rehash_policyENS6_17_Hashtable_traitsILb0ELb0ELb1EEEE13_M_rehash_auxEmSt17integral_constantIbLb1EE
FNDA:4,_ZNSt10_HashtableIiSt4pairIKiiESaIS2_ENSt8__detail10_Select1stESt8equal_toIiESt4hashIiENS4_18_Mod_range_hashingENS4_20_Default_ranged_hashENS4_20_Prime_rehash_policyENS4_17_Hashtable_traitsILb0ELb0ELb1EEEE13_M_rehash_auxEmSt17integral_constantIbLb1EE
FNDA:0,_ZNSt10_HashtableINSt7__cxx1112basic_stringIcSt11char_traitsIcESaIcEEES5_SaIS5_ENSt8__detail9_IdentityESt8equal_toIS5_ESt4hashIS5_ENS7_18_Mod_range_hashingENS7_20_Default_ranged_hashENS7_20_Prime_rehash_policyENS7_17_Hashtable_traitsILb1ELb1ELb1EEEE12_Scoped_nodeD2Ev
FNDA:1,_ZNSt10_HashtableINSt7__cxx1112basic_stringIcSt11char_traitsIcESaIcEEESt4pairIKS5_PN7testing9TestSuiteEESaISB_ENSt8__detail10_Select1stESt8equal_toIS5_ESt4hashIS5_ENSD_18_Mod_range_hashingENSD_20_Default_ranged_hashENSD_20_Prime_rehash_policyENSD_17_Hashtable_traitsILb1ELb0ELb1EEEE12_Scoped_nodeD2Ev
FNDA:4,_ZNSt10_HashtableINSt7__cxx1112basic_stringIcSt11char_traitsIcESaIcEEESt4pairIKS5_St14_List_iteratorIS5_EESaISA_ENSt8__detail10_Select1stESt8equal_toIS5_ESt4hashIS5_ENSC_18_Mod_range_hashingENSC_20_Default_ranged_hashENSC_20_Prime_rehash_policyENSC_17_Hashtable_traitsILb1ELb0ELb1EEEE12_Scoped_nodeD2Ev
FNDA:7562,_ZNSt10_HashtableIiSt4pairIKiNSt7__cxx1112basic_stringIcSt11char_traitsIcESaIcEEEESaIS8_ENSt8__detail10_Select1stESt8equal_toIiESt4hashIiENSA_18_Mod_range_hashingENSA_20_Default_ranged_hashENSA_20_Prime_rehash_policyENSA_17_Hashtable_traitsILb0ELb0ELb1EEEE12_Scoped_nodeD2Ev
FNF:91
FNH:79
DA:300,0
DA:301,0
DA:305,14129
DA:306,14129
DA:307,14130
DA:311,14129
DA:402,2
DA:404,2
DA:405,0
DA:416,48
DA:417,48
DA:420,2
DA:421,2
DA:434,21
DA:436,21
DA:438,0
DA:439,0
DA:442,22
DA:446,48
DA:448,48
DA:451,0
DA:455,48
DA:456,22
DA:464,96
DA:465,96
DA:530,16
DA:584,0
DA:589,0
DA:592,0
DA:623,48
DA:624,54
DA:627,39
DA:628,39
DA:631,55055
DA:632,55074
DA:635,78
DA:636,78
DA:647,69155
DA:648,1121
DA:792,0
DA:793,0
DA:796,0
DA:797,0
DA:812,0
DA:815,0
DA:816,93676
DA:817,63251
DA:823,0
DA:826,0
DA:827,0
DA:828,0
DA:902,0
DA:904,0
DA:911,0
DA:916,0
DA:934,0
DA:938,0
DA:960,1
DA:961,1
DA:979,0
DA:980,0
DA:983,0
DA:984,0
DA:1404,2
DA:1408,2
DA:1409,2
DA:1410,2
DA:1411,2
DA:1412,2
DA:1413,2
DA:1421,2
DA:1425,2
DA:1426,0
DA:1428,2
DA:1429,2
DA:1431,2
DA:1432,2
DA:1433,0
DA:1436,2
DA:1437,2
DA:1440,2
DA:1441,2
DA:1442,2
DA:1443,2
DA:1446,2
DA:1447,2
DA:1595,37
DA:1608,37
DA:1609,37
DA:1610,37
DA:1664,56018
DA:1669,56018
DA:1671,57
DA:1672,18
DA:1673,10
DA:1674,39
DA:1677,55969
DA:1678,55969
DA:1679,55969
DA:1687,39
DA:1692,39
DA:1694,39
DA:1695,0
DA:1696,0
DA:1697,39
DA:1700,0
DA:1701,0
DA:1702,0
DA:1919,3
DA:1924,3
DA:1925,3
DA:1928,0
DA:1929,3
DA:1930,0
DA:1932,3
DA:1933,3
DA:1935,0
DA:1948,105690
DA:1954,105690
DA:1955,105690
DA:1958,87795
DA:1959,10473
DA:1961,98268
DA:1962,75265
DA:1964,23059
DA:1966,10473
DA:1978,0
DA:1984,0
DA:1985,0
DA:1988,0
DA:1991,0
DA:1992,0
DA:1994,0
DA:2007,14129
DA:2011,14129
DA:2015,5840
DA:2016,5840
DA:2023,8289
DA:2024,8289
DA:2026,8289
DA:2029,8265
DA:2031,8289
DA:2033,14129
DA:2040,9123
DA:2045,9123
DA:2049,8153
DA:2050,6741
DA:2053,8153
DA:2054,800
DA:2055,8153
DA:2057,9123
DA:2064,1957
DA:2069,1957
DA:2070,2004
DA:2081,1
DA:2087,1
DA:2088,1
DA:2089,1
DA:2091,1
DA:2092,0
DA:2094,0
DA:2097,1
DA:2098,1
DA:2099,1
DA:2100,0
DA:2102,0
DA:2105,1
DA:2106,1
DA:2107,1
DA:2108,1
DA:2166,14129
DA:2172,14129
DA:2174,14129
DA:2177,14129
DA:2179,22
DA:2180,22
DA:2183,13
DA:2186,14129
DA:2187,14129
DA:2188,14129
DA:2253,0
DA:2259,0
DA:2260,0
DA:2261,0
DA:2262,0
DA:2264,0
DA:2265,0
DA:2267,0
DA:2268,0
DA:2269,0
DA:2271,0
DA:2278,0
DA:2279,0
DA:2280,0
DA:2281,0
DA:2316,1957
DA:2321,1957
DA:2322,1957
DA:2327,1957
DA:2328,1957
DA:2336,13974
DA:2341,13974
DA:2342,9123
DA:2343,9123
DA:2344,4851
DA:2346,3717
DA:2347,3717
DA:2348,3515
DA:2351,13974
DA:2352,13974
DA:2353,13974
DA:2354,13974
DA:2356,13974
DA:2364,12017
DA:2372,12017
DA:2374,3
DA:2375,3
DA:2379,3
DA:2380,3
DA:2384,12014
DA:2385,12014
DA:2388,12014
DA:2389,12014
DA:2393,12014
DA:2396,12017
DA:2397,12017
DA:2520,37
DA:2524,37
DA:2525,37
DA:2526,37
DA:2527,37
DA:2528,37
DA:2529,37
DA:2559,22
DA:2565,22
DA:2567,0
DA:2571,0
DA:2572,0
DA:2574,22
DA:2582,22
DA:2586,22
DA:2587,22
DA:2588,22
DA:2589,22
DA:2590,123
DA:2592,101
DA:2594,101
DA:2595,101
DA:2597,101
DA:2598,101
DA:2599,101
DA:2600,101
DA:2601,98
DA:2606,0
DA:2607,0
DA:2613,22
DA:2614,22
DA:2615,22
DA:2616,22
LF:259
LH:189
end_of_record
TN:
SF:/usr/include/c++/13/bits/hashtable_policy.h
FN:1732,1734,_ZNKSt8__detail15_Hashtable_baseINSt7__cxx1112basic_stringIcSt11char_traitsIcESaIcEEES6_NS_9_IdentityESt8equal_toIS6_ESt4hashIS6_ENS_18_Mod_range_hashingENS_20_Default_ranged_hashENS_17_Hashtable_traitsILb1ELb1ELb1EEEE9_M_equalsERKS6_mRKNS_16_Hash_node_valueIS6_Lb1EEE
FN:1732,1734,_ZNKSt8__detail15_Hashtable_baseINSt7__cxx1112basic_stringIcSt11char_traitsIcESaIcEEESt4pairIKS6_PN7testing9TestSuiteEENS_10_Select1stESt8equal_toIS6_ESt4hashIS6_ENS_18_Mod_range_hashingENS_20_Default_ranged_hashENS_17_Hashtable_traitsILb1ELb0ELb1EEEE9_M_equalsERS8_mRKNS_16_Hash_node_valueISC_Lb1EEE
FN:1732,1734,_ZNKSt8__detail15_Hashtable_baseINSt7__cxx1112basic_stringIcSt11char_traitsIcESaIcEEESt4pairIKS6_S6_ENS_10_Select1stESt8equal_toIS6_ESt4hashIS6_ENS_18_Mod_range_hashingENS_20_Default_ranged_hashENS_17_Hashtable_traitsILb1ELb0ELb1EEEE9_M_equalsERS8_mRKNS_16_Hash_node_valueIS9_Lb1EEE
FN:1732,1734,_ZNKSt8__detail15_Hashtable_baseINSt7__cxx1112basic_stringIcSt11char_traitsIcESaIcEEESt4pairIKS6_St14_List_iteratorIS6_EENS_10_Select1stESt8equal_toIS6_ESt4hashIS6_ENS_18_Mod_range_hashingENS_20_Default_ranged_hashENS_17_Hashtable_traitsILb1ELb0ELb1EEEE9_M_equalsERS8_mRKNS_16_Hash_node_valueISB_Lb1EEE
FN:1987,2005,_ZNSt8__detail16_Hashtable_allocISaINS_10_Hash_nodeINSt7__cxx1112basic_stringIcSt11char_traitsIcESaIcEEELb1EEEEE16_M_allocate_nodeIJS7_EEEPS8_DpOT_
FN:1987,2005,_ZNSt8__detail16_Hashtable_allocISaINS_10_Hash_nodeISt4pairIKNSt7__cxx1112basic_stringIcSt11char_traitsIcESaIcEEEPN7testing9TestSuiteEELb1EEEEE16_M_allocate_nodeIJRS9_RKSC_EEEPSE_DpOT_
FN:1987,2005,_ZNSt8__detail16_Hashtable_allocISaINS_10_Hash_nodeISt4pairIKNSt7__cxx1112basic_stringIcSt11char_traitsIcESaIcEEES8_ELb1EEEEE16_M_allocate_nodeIJRKSt21piecewise_construct_tSt5tupleIJRS9_EESI_IJEEEEEPSB_DpOT_
FN:1987,2005,_ZNSt8__detail16_Hashtable_allocISaINS_10_Hash_nodeISt4pairIKNSt7__cxx1112basic_stringIcSt11char_traitsIcESaIcEEESt14_List_iteratorIS8_EELb1EEEEE16_M_allocate_nodeIJRKSt21piecewise_construct_tSt5tupleIJRS9_EESK_IJEEEEEPSD_DpOT_
FN:1987,2005,_ZNSt8__detail16_Hashtable_allocISaINS_10_Hash_nodeISt4pairIKiNSt7__cxx1112basic_stringIcSt11char_traitsIcESaIcEEEELb0EEEEE16_M_allocate_nodeIJRKSt21piecewise_construct_tSt5tupleIJRS3_EESI_IJEEEEEPSB_DpOT_
FN:1987,2005,_ZNSt8__detail16_Hashtable_allocISaINS_10_Hash_nodeISt4pairIKiSt14_List_iteratorIiEELb0EEEEE16_M_allocate_nodeIJRKSt21piecewise_construct_tSt5tupleIJRS3_EESE_IJEEEEEPS7_DpOT_
FN:1987,2005,_ZNSt8__detail16_Hashtable_allocISaINS_10_Hash_nodeISt4pairIKiiELb0EEEEE16_M_allocate_nodeIJRKSt21piecewise_construct_tSt5tupleIJRS3_EESC_IJEEEEEPS5_DpOT_
FN:2009,2013,_ZNSt8__detail16_Hashtable_allocISaINS_10_Hash_nodeISt4pairIKNSt7__cxx1112basic_stringIcSt11char_traitsIcESaIcEEES8_ELb1EEEEE18_M_deallocate_nodeEPSB_
FN:2027,2035,_ZNSt8__detail16_Hashtable_allocISaINS_10_Hash_nodeINSt7__cxx1112basic_stringIcSt11char_traitsIcESaIcEEELb1EEEEE19_M_deallocate_nodesEPS8_
FN:2027,2035,_ZNSt8__detail16_Hashtable_allocISaINS_10_Hash_nodeISt4pairIKNSt7__cxx1112basic_stringIcSt11char_traitsIcESaIcEEEPN7testing9TestSuiteEELb1EEEEE19_M_deallocate_nodesEPSE_
FN:2027,2035,_ZNSt8__detail16_Hashtable_allocISaINS_10_Hash_nodeISt4pairIKNSt7__cxx1112basic_stringIcSt11char_traitsIcESaIcEEESt14_List_iteratorIS8_EELb1EEEEE19_M_deallocate_nodesEPSD_
FN:2027,2035,_ZNSt8__detail16_Hashtable_allocISaINS_10_Hash_nodeISt4pairIKNSt7__cxx1112basic_stringIcSt11char_traitsIcESaIcEEEmELb1EEEEE19_M_deallocate_nodesEPSB_
FN:2027,2035,_ZNSt8__detail16_Hashtable_allocISaINS_10_Hash_nodeISt4pairIKiNSt7__cxx1112basic_stringIcSt11char_traitsIcESaIcEEEELb0EEEEE19_M_deallocate_nodesEPSB_
FN:2039,2048,_ZNSt8__detail16_Hashtable_allocISaINS_10_Hash_nodeINSt7__cxx1112basic_stringIcSt11char_traitsIcESaIcEEELb1EEEEE19_M_allocate_bucketsEm
FN:2039,2048,_ZNSt8__detail16_Hashtable_allocISaINS_10_Hash_nodeISt4pairIKNSt7__cxx1112basic_stringIcSt11char_traitsIcESaIcEEEPN7testing9TestSuiteEELb1EEEEE19_M_allocate_bucketsEm
FN:2039,2048,_ZNSt8__detail16_Hashtable_allocISaINS_10_Hash_nodeISt4pairIKNSt7__cxx1112basic_stringIcSt11char_traitsIcESaIcEEES8_ELb1EEEEE19_M_allocate_bucketsEm
FN:2039,2048,_ZNSt8__detail16_Hashtable_allocISaINS_10_Hash_nodeISt4pairIKNSt7__cxx1112basic_stringIcSt11char_traitsIcESaIcEEESt14_List_iteratorIS8_EELb1EEEEE19_M_allocate_bucketsEm
FN:2039,2048,_ZNSt8__detail16_Hashtable_allocISaINS_10_Hash_nodeISt4pairIKiNSt7__cxx1112basic_stringIcSt11char_traitsIcESaIcEEEELb0EEEEE19_M_allocate_bucketsEm
FN:2039,2048,_ZNSt8__detail16_Hashtable_allocISaINS_10_Hash_nodeISt4pairIKiSt14_List_iteratorIiEELb0EEEEE19_M_allocate_bucketsEm
FN:2039,2048,_ZNSt8__detail16_Hashtable_allocISaINS_10_Hash_nodeISt4pairIKiiELb0EEEEE19_M_allocate_bucketsEm
FN:807,828,_ZNSt8__detail9_Map_baseINSt7__cxx1112basic_stringIcSt11char_traitsIcESaIcEEESt4pairIKS6_S6_ESaIS9_ENS_10_Select1stESt8equal_toIS6_ESt4hashIS6_ENS_18_Mod_range_hashingENS_20_Default_ranged_hashENS_20_Prime_rehash_policyENS_17_Hashtable_traitsILb1ELb0ELb1EEELb1EEixERS8_
FN:807,828,_ZNSt8__detail9_Map_baseINSt7__cxx1112basic_stringIcSt11char_traitsIcESaIcEEESt4pairIKS6_St14_List_iteratorIS6_EESaISB_ENS_10_Select1stESt8equal_toIS6_ESt4hashIS6_ENS_18_Mod_range_hashingENS_20_Default_ranged_hashENS_20_Prime_rehash_policyENS_17_Hashtable_traitsILb1ELb0ELb1EEELb1EEixERS8_
FN:807,828,_ZNSt8__detail9_Map_baseIiSt4pairIKiNSt7__cxx1112basic_stringIcSt11char_traitsIcESaIcEEEESaIS9_ENS_10_Select1stESt8equal_toIiESt4hashIiENS_18_Mod_range_hashingENS_20_Default_ranged_hashENS_20_Prime_rehash_policyENS_17_Hashtable_traitsILb0ELb0ELb1EEELb1EEixERS2_
FN:807,828,_ZNSt8__detail9_Map_baseIiSt4pairIKiSt14_List_iteratorIiEESaIS5_ENS_10_Select1stESt8equal_toIiESt4hashIiENS_18_Mod_range_hashingENS_20_Default_ranged_hashENS_20_Prime_rehash_policyENS_17_Hashtable_traitsILb0ELb0ELb1EEELb1EEixERS2_
FN:807,828,_ZNSt8__detail9_Map_baseIiSt4pairIKiiESaIS3_ENS_10_Select1stESt8equal_toIiESt4hashIiENS_18_Mod_range_hashingENS_20_Default_ranged_hashENS_20_Prime_rehash_policyENS_17_Hashtable_traitsILb0ELb0ELb1EEELb1EEixERS2_
FNDA:0,_ZNKSt8__detail15_Hashtable_baseINSt7__cxx1112basic_stringIcSt11char_traitsIcESaIcEEES6_NS_9_IdentityESt8equal_toIS6_ESt4hashIS6_ENS_18_Mod_range_hashingENS_20_Default_ranged_hashENS_17_Hashtable_traitsILb1ELb1ELb1EEEE9_M_equalsERKS6_mRKNS_16_Hash_node_valueIS6_Lb1EEE
FNDA:0,_ZNKSt8__detail15_Hashtable_baseINSt7__cxx1112basic_stringIcSt11char_traitsIcESaIcEEESt4pairIKS6_PN7testing9TestSuiteEENS_10_Select1stESt8equal_toIS6_ESt4hashIS6_ENS_18_Mod_range_hashingENS_20_Default_ranged_hashENS_17_Hashtable_traitsILb1ELb0ELb1EEEE9_M_equalsERS8_mRKNS_16_Hash_node_valueISC_Lb1EEE
FNDA:6,_ZNKSt8__detail15_Hashtable_baseINSt7__cxx1112basic_stringIcSt11char_traitsIcESaIcEEESt4pairIKS6_S6_ENS_10_Select1stESt8equal_toIS6_ESt4hashIS6_ENS_18_Mod_range_hashingENS_20_Default_ranged_hashENS_17_Hashtable_traitsILb1ELb0ELb1EEEE9_M_equalsERS8_mRKNS_16_Hash_node_valueIS9_Lb1EEE
FNDA:0,_ZNKSt8__detail15_Hashtable_baseINSt7__cxx1112basic_stringIcSt11char_traitsIcESaIcEEESt4pairIKS6_St14_List_iteratorIS6_EENS_10_Select1stESt8equal_toIS6_ESt4hashIS6_ENS_18_Mod_range_hashingENS_20_Default_ranged_hashENS_17_Hashtable_traitsILb1ELb0ELb1EEEE9_M_equalsERS8_mRKNS_16_Hash_node_valueISB_Lb1EEE
FNDA:0,_ZNSt8__detail16_Hashtable_allocISaINS_10_Hash_nodeINSt7__cxx1112basic_stringIcSt11char_traitsIcESaIcEEELb1EEEEE16_M_allocate_nodeIJS7_EEEPS8_DpOT_
FNDA:1,_ZNSt8__detail16_Hashtable_allocISaINS_10_Hash_nodeISt4pairIKNSt7__cxx1112basic_stringIcSt11char_traitsIcESaIcEEEPN7testing9TestSuiteEELb1EEEEE16_M_allocate_nodeIJRS9_RKSC_EEEPSE_DpOT_
FNDA:8,_ZNSt8__detail16_Hashtable_allocISaINS_10_Hash_nodeISt4pairIKNSt7__cxx1112basic_stringIcSt11char_traitsIcESaIcEEES8_ELb1EEEEE16_M_allocate_nodeIJRKSt21piecewise_construct_tSt5tupleIJRS9_EESI_IJEEEEEPSB_DpOT_
FNDA:4,_ZNSt8__detail16_Hashtable_allocISaINS_10_Hash_nodeISt4pairIKNSt7__cxx1112basic_stringIcSt11char_traitsIcESaIcEEESt14_List_iteratorIS8_EELb1EEEEE16_M_allocate_nodeIJRKSt21piecewise_construct_tSt5tupleIJRS9_EESK_IJEEEEEPSD_DpOT_
FNDA:7562,_ZNSt8__detail16_Hashtable_allocISaINS_10_Hash_nodeISt4pairIKiNSt7__cxx1112basic_stringIcSt11char_traitsIcESaIcEEEELb0EEEEE16_M_allocate_nodeIJRKSt21piecewise_construct_tSt5tupleIJRS3_EESI_IJEEEEEPSB_DpOT_
FNDA:6500,_ZNSt8__detail16_Hashtable_allocISaINS_10_Hash_nodeISt4pairIKiSt14_List_iteratorIiEELb0EEEEE16_M_allocate_nodeIJRKSt21piecewise_construct_tSt5tupleIJRS3_EESE_IJEEEEEPS7_DpOT_
FNDA:54,_ZNSt8__detail16_Hashtable_allocISaINS_10_Hash_nodeISt4pairIKiiELb0EEEEE16_M_allocate_nodeIJRKSt21piecewise_construct_tSt5tupleIJRS3_EESC_IJEEEEEPS5_DpOT_
FNDA:8,_ZNSt8__detail16_Hashtable_allocISaINS_10_Hash_nodeISt4pairIKNSt7__cxx1112basic_stringIcSt11char_traitsIcESaIcEEES8_ELb1EEEEE18_M_deallocate_nodeEPSB_
FNDA:10,_ZNSt8__detail16_Hashtable_allocISaINS_10_Hash_nodeINSt7__cxx1112basic_stringIcSt11char_traitsIcESaIcEEELb1EEEEE19_M_deallocate_nodesEPS8_
FNDA:1,_ZNSt8__detail16_Hashtable_allocISaINS_10_Hash_nodeISt4pairIKNSt7__cxx1112basic_stringIcSt11char_traitsIcESaIcEEEPN7testing9TestSuiteEELb1EEEEE19_M_deallocate_nodesEPSE_
FNDA:3,_ZNSt8__detail16_Hashtable_allocISaINS_10_Hash_nodeISt4pairIKNSt7__cxx1112basic_stringIcSt11char_traitsIcESaIcEEESt14_List_iteratorIS8_EELb1EEEEE19_M_deallocate_nodesEPSD_
FNDA:1,_ZNSt8__detail16_Hashtable_allocISaINS_10_Hash_nodeISt4pairIKNSt7__cxx1112basic_stringIcSt11char_traitsIcESaIcEEEmELb1EEEEE19_M_deallocate_nodesEPSB_
FNDA:4,_ZNSt8__detail16_Hashtable_allocISaINS_10_Hash_nodeISt4pairIKiNSt7__cxx1112basic_stringIcSt11char_traitsIcESaIcEEEELb0EEEEE19_M_deallocate_nodesEPSB_
FNDA:0,_ZNSt8__detail16_Hashtable_allocISaINS_10_Hash_nodeINSt7__cxx1112basic_stringIcSt11char_traitsIcESaIcEEELb1EEEEE19_M_allocate_bucketsEm
FNDA:1,_ZNSt8__detail16_Hashtable_allocISaINS_10_Hash_nodeISt4pairIKNSt7__cxx1112basic_stringIcSt11char_traitsIcESaIcEEEPN7testing9TestSuiteEELb1EEEEE19_M_allocate_bucketsEm
FNDA:6,_ZNSt8__detail16_Hashtable_allocISaINS_10_Hash_nodeISt4pairIKNSt7__cxx1112basic_stringIcSt11char_traitsIcESaIcEEES8_ELb1EEEEE19_M_allocate_bucketsEm
FNDA:3,_ZNSt8__detail16_Hashtable_allocISaINS_10_Hash_nodeISt4pairIKNSt7__cxx1112basic_stringIcSt11char_traitsIcESaIcEEESt14_List_iteratorIS8_EELb1EEEEE19_M_allocate_bucketsEm
FNDA:5,_ZNSt8__detail16_Hashtable_allocISaINS_10_Hash_nodeISt4pairIKiNSt7__cxx1112basic_stringIcSt11char_traitsIcESaIcEEEELb0EEEEE19_M_allocate_bucketsEm
FNDA:3,_ZNSt8__detail16_Hashtable_allocISaINS_10_Hash_nodeISt4pairIKiSt14_List_iteratorIiEELb0EEEEE19_M_allocate_bucketsEm
FNDA:4,_ZNSt8__detail16_Hashtable_allocISaINS_10_Hash_nodeISt4pairIKiiELb0EEEEE19_M_allocate_bucketsEm
FNDA:14,_ZNSt8__detail9_Map_baseINSt7__cxx1112basic_stringIcSt11char_traitsIcESaIcEEESt4pairIKS6_S6_ESaIS9_ENS_10_Select1stESt8equal_toIS6_ESt4hashIS6_ENS_18_Mod_range_hashingENS_20_Default_ranged_hashENS_20_Prime_rehash_policyENS_17_Hashtable_traitsILb1ELb0ELb1EEELb1EEixERS8_
FNDA:4,_ZNSt8__detail9_Map_baseINSt7__cxx1112basic_stringIcSt11char_traitsIcESaIcEEESt4pairIKS6_St14_List_iteratorIS6_EESaISB_ENS_10_Select1stESt8equal_toIS6_ESt4hashIS6_ENS_18_Mod_range_hashingENS_20_Default_ranged_hashENS_20_Prime_rehash_policyENS_17_Hashtable_traitsILb1ELb0ELb1EEELb1EEixERS8_
FNDA:31124,_ZNSt8__detail9_Map_baseIiSt4pairIKiNSt7__cxx1112basic_stringIcSt11char_traitsIcESaIcEEEESaIS9_ENS_10_Select1stESt8equal_toIiESt4hashIiENS_18_Mod_range_hashingENS_20_Default_ranged_hashENS_20_Prime_rehash_policyENS_17_Hashtable_traitsILb0ELb0ELb1EEELb1EEixERS2_
FNDA:6500,_ZNSt8__detail9_Map_baseIiSt4pairIKiSt14_List_iteratorIiEESaIS5_ENS_10_Select1stESt8equal_toIiESt4hashIiENS_18_Mod_range_hashingENS_20_Default_ranged_hashENS_20_Prime_rehash_policyENS_17_Hashtable_traitsILb0ELb0ELb1EEELb1EEixERS2_
FNDA:65,_ZNSt8__detail9_Map_baseIiSt4pairIKiiESaIS3_ENS_10_Select1stESt8equal_toIiESt4hashIiENS_18_Mod_range_hashingENS_20_Default_ranged_hashENS_20_Prime_rehash_policyENS_17_Hashtable_traitsILb0ELb0ELb1EEELb1EEixERS2_
FNF:29
FNH:24
DA:112,0
DA:113,0
DA:171,0
DA:173,0
DA:242,0
DA:243,0
DA:247,0
DA:248,0
DA:313,14137
DA:332,0
DA:333,1
DA:337,0
DA:338,0
DA:343,1
DA:347,0
DA:348,0
DA:375,14128
DA:380,0
DA:381,19692
DA:393,0
DA:394,0
DA:397,0
DA:398,0
DA:436,0
DA:437,125179
DA:444,0
DA:445,14931
DA:448,0
DA:450,0
DA:451,0
DA:483,0
DA:484,78
DA:486,0
DA:488,0
DA:499,0
DA:501,0
DA:502,0
DA:526,0
DA:528,42900
DA:544,16
DA:545,16
DA:571,14128
DA:572,14129
DA:575,2
DA:576,2
DA:579,0
DA:580,0
DA:807,37707
DA:812,37707
DA:813,37707
DA:814,37707
DA:815,23579
DA:816,23579
DA:818,14128
DA:821,14128
DA:822,0
DA:825,14128
DA:826,14128
DA:827,14128
DA:828,14128
DA:1079,0
DA:1081,0
DA:1082,0
DA:1083,0
DA:1215,37
DA:1218,16
DA:1301,16
DA:1306,0
DA:1310,1
DA:1315,0
DA:1319,0
DA:1331,0
DA:1332,2
DA:1335,0
DA:1341,42900
DA:1346,0
DA:1350,6
DA:1362,12
DA:1363,12
DA:1692,0
DA:1693,0
DA:1701,16
DA:1708,0
DA:1715,98345
DA:1720,0
DA:1728,0
DA:1732,98324
DA:1734,98330
DA:1738,0
DA:1741,0
DA:1912,37
DA:1940,16
DA:1987,14129
DA:1990,14129
DA:1991,14129
DA:1994,14129
DA:1995,14129
DA:1998,14129
DA:2000,0
DA:2002,0
DA:2003,0
DA:2009,0
DA:2011,0
DA:2012,0
DA:2013,0
DA:2017,0
DA:2020,0
DA:2021,0
DA:2022,0
DA:2027,39
DA:2029,194
DA:2031,155
DA:2032,150
DA:2033,155
DA:2035,19
DA:2039,22
DA:2042,22
DA:2044,22
DA:2045,22
DA:2046,22
DA:2047,22
DA:2052,0
DA:2057,0
DA:2058,0
DA:2059,0
LF:125
LH:60
end_of_record
TN:
SF:/usr/include/c++/13/bits/invoke.h
FNF:0
FNH:0
DA:60,10
DA:61,10
DA:90,10
DA:96,10
LF:4
LH:4
end_of_record
TN:
SF:/usr/include/c++/13/bits/ios_base.h
FN:1001,1005,_ZSt9uppercaseRSt8ios_base
FN:1067,1071,_ZSt3hexRSt8ios_base
FN:1084,1088,_ZSt5fixedRSt8ios_base
FN:953,957,_ZSt9showpointRSt8ios_base
FNDA:0,_ZSt9uppercaseRSt8ios_base
FNDA:0,_ZSt3hexRSt8ios_base
FNDA:0,_ZSt5fixedRSt8ios_base
FNDA:0,_ZSt9showpointRSt8ios_base
FNF:4
FNH:0
DA:83,0
DA:84,0
DA:87,0
DA:88,0
DA:99,0
DA:100,0
DA:103,0
DA:104,0
DA:662,0
DA:663,0
DA:673,0
DA:675,0
DA:676,0
DA:677,0
DA:689,0
DA:691,0
DA:692,0
DA:693,0
DA:706,0
DA:708,0
DA:709,0
DA:710,0
DA:711,0
DA:741,0
DA:743,0
DA:744,0
DA:745,63
DA:764,0
DA:766,0
DA:767,0
DA:768,0
DA:953,0
DA:955,0
DA:956,0
DA:1001,0
DA:1003,0
DA:1004,0
DA:1067,0
DA:1069,0
DA:1070,0
DA:1084,0
DA:1086,0
DA:1087,0
LF:43
LH:1
end_of_record
TN:
SF:/usr/include/c++/13/bits/list.tcc
FN:331,363,_ZNSt7__cxx114listINS_12basic_stringIcSt11char_traitsIcESaIcEEESaIS5_EE6removeB7__cxx20ERKS5_
FN:331,363,_ZNSt7__cxx114listIiSaIiEE6removeB7__cxx20ERKi
FN:66,83,_ZNSt7__cxx1110_List_baseINS_12basic_stringIcSt11char_traitsIcESaIcEEESaIS5_EE8_M_clearEv
FNDA:1,_ZNSt7__cxx114listINS_12basic_stringIcSt11char_traitsIcESaIcEEESaIS5_EE6removeB7__cxx20ERKS5_
FNDA:954,_ZNSt7__cxx114listIiSaIiEE6removeB7__cxx20ERKi
FNDA:4,_ZNSt7__cxx1110_List_baseINS_12basic_stringIcSt11char_traitsIcESaIcEEESaIS5_EE8_M_clearEv
FNF:3
FNH:3
DA:66,959
DA:70,959
DA:71,1916
DA:73,957
DA:74,957
DA:75,957
DA:77,957
DA:81,957
DA:83,4
DA:331,955
DA:337,955
DA:338,955
DA:339,955
DA:340,10358
DA:342,9403
DA:343,9403
DA:344,9403
DA:349,955
DA:361,955
DA:363,955
LF:20
LH:20
end_of_record
TN:
SF:/usr/include/c++/13/bits/locale_facets.h
FN:1092,1093,_ZNKSt5ctypeIcE8do_widenEc
FN:880,886,_ZNKSt5ctypeIcE5widenEc
FNDA:0,_ZNKSt5ctypeIcE8do_widenEc
FNDA:0,_ZNKSt5ctypeIcE5widenEc
FNF:2
FNH:0
DA:880,0
DA:882,0
DA:883,0
DA:884,0
DA:885,0
DA:1092,0
DA:1093,0
LF:7
LH:0
end_of_record
TN:
SF:/usr/include/c++/13/bits/move.h
FNF:0
FNH:0
DA:189,15
DA:197,15
DA:198,15
DA:199,15
LF:4
LH:4
end_of_record
TN:
SF:/usr/include/c++/13/bits/new_allocator.h
FN:126,152,_ZNSt15__new_allocatorIN7testing12TestPropertyEE8allocateEmPKv
FN:126,152,_ZNSt15__new_allocatorIN7testing14TestPartResultEE8allocateEmPKv
FN:126,152,_ZNSt15__new_allocatorIN7testing8internal13edit_distance8EditTypeEE8allocateEmPKv
FN:126,152,_ZNSt15__new_allocatorIN7testing8internal9TraceInfoEE8allocateEmPKv
FN:126,152,_ZNSt15__new_allocatorINSt7__cxx1112basic_stringIcSt11char_traitsIcESaIcEEEE8allocateEmPKv
FN:126,152,_ZNSt15__new_allocatorINSt8__detail10_Hash_nodeINSt7__cxx1112basic_stringIcSt11char_traitsIcESaIcEEELb1EEEE8allocateEmPKv
FN:126,152,_ZNSt15__new_allocatorINSt8__detail10_Hash_nodeISt4pairIKNSt7__cxx1112basic_stringIcSt11char_traitsIcESaIcEEEPN7testing9TestSuiteEELb1EEEE8allocateEmPKv
FN:126,152,_ZNSt15__new_allocatorINSt8__detail10_Hash_nodeISt4pairIKNSt7__cxx1112basic_stringIcSt11char_traitsIcESaIcEEES8_ELb1EEEE8allocateEmPKv
FN:126,152,_ZNSt15__new_allocatorINSt8__detail10_Hash_nodeISt4pairIKNSt7__cxx1112basic_stringIcSt11char_traitsIcESaIcEEESt14_List_iteratorIS8_EELb1EEEE8allocateEmPKv
FN:126,152,_ZNSt15__new_allocatorINSt8__detail10_Hash_nodeISt4pairIKiNSt7__cxx1112basic_stringIcSt11char_traitsIcESaIcEEEELb0EEEE8allocateEmPKv
FN:126,152,_ZNSt15__new_allocatorINSt8__detail10_Hash_nodeISt4pairIKiSt14_List_iteratorIiEELb0EEEE8allocateEmPKv
FN:126,152,_ZNSt15__new_allocatorINSt8__detail10_Hash_nodeISt4pairIKiiELb0EEEE8allocateEmPKv
FN:126,152,_ZNSt15__new_allocatorIPN7testing11EnvironmentEE8allocateEmPKv
FN:126,152,_ZNSt15__new_allocatorIPN7testing17TestEventListenerEE8allocateEmPKv
FN:126,152,_ZNSt15__new_allocatorIPN7testing8TestInfoEE8allocateEmPKv
FN:126,152,_ZNSt15__new_allocatorIPN7testing9TestSuiteEE8allocateEmPKv
FN:126,152,_ZNSt15__new_allocatorIPNSt8__detail15_Hash_node_baseEE8allocateEmPKv
FN:126,152,_ZNSt15__new_allocatorIPcE8allocateEmPKv
FN:126,152,_ZNSt15__new_allocatorISt10_List_nodeINSt7__cxx1112basic_stringIcSt11char_traitsIcESaIcEEEEE8allocateEmPKv
FN:126,152,_ZNSt15__new_allocatorISt10_List_nodeISt4pairIcPKcEEE8allocateEmPKv
FN:126,152,_ZNSt15__new_allocatorISt10_List_nodeIiEE8allocateEmPKv
FN:126,152,_ZNSt15__new_allocatorISt13_Rb_tree_nodeINSt7__cxx1112basic_stringIcSt11char_traitsIcESaIcEEEEE8allocateEmPKv
FN:126,152,_ZNSt15__new_allocatorISt13_Rb_tree_nodeISt4pairIKNSt7__cxx1112basic_stringIcSt11char_traitsIcESaIcEEEN7testing8internal34TypeParameterizedTestSuiteRegistry30TypeParameterizedTestSuiteInfoEEEE8allocateEmPKv
FN:126,152,_ZNSt15__new_allocatorISt13_Rb_tree_nodeISt4pairIKNSt7__cxx1112basic_stringIcSt11char_traitsIcESaIcEEEmEEE8allocateEmPKv
FN:126,152,_ZNSt15__new_allocatorISt6threadE8allocateEmPKv
FN:126,152,_ZNSt15__new_allocatorISt6vectorIN7testing8internal13edit_distance8EditTypeESaIS4_EEE8allocateEmPKv
FN:126,152,_ZNSt15__new_allocatorISt6vectorIdSaIdEEE8allocateEmPKv
FN:126,152,_ZNSt15__new_allocatorIcE8allocateEmPKv
FN:126,152,_ZNSt15__new_allocatorIdE8allocateEmPKv
FN:126,152,_ZNSt15__new_allocatorIiE8allocateEmPKv
FN:126,152,_ZNSt15__new_allocatorImE8allocateEmPKv
FN:126,152,_ZNSt15__new_allocatorIwE8allocateEmPKv
FN:156,173,_ZNSt15__new_allocatorIN7testing12TestPropertyEE10deallocateEPS1_m
FN:156,173,_ZNSt15__new_allocatorIN7testing14TestPartResultEE10deallocateEPS1_m
FN:156,173,_ZNSt15__new_allocatorIN7testing8internal13edit_distance8EditTypeEE10deallocateEPS3_m
FN:156,173,_ZNSt15__new_allocatorIN7testing8internal9TraceInfoEE10deallocateEPS2_m
FN:156,173,_ZNSt15__new_allocatorINSt7__cxx1112basic_stringIcSt11char_traitsIcESaIcEEEE10deallocateEPS5_m
FN:156,173,_ZNSt15__new_allocatorINSt8__detail10_Hash_nodeINSt7__cxx1112basic_stringIcSt11char_traitsIcESaIcEEELb1EEEE10deallocateEPS8_m
FN:156,173,_ZNSt15__new_allocatorINSt8__detail10_Hash_nodeISt4pairIKNSt7__cxx1112basic_stringIcSt11char_traitsIcESaIcEEEPN7testing9TestSuiteEELb1EEEE10deallocateEPSE_m
FN:156,173,_ZNSt15__new_allocatorINSt8__detail10_Hash_nodeISt4pairIKNSt7__cxx1112basic_stringIcSt11char_traitsIcESaIcEEES8_ELb1EEEE10deallocateEPSB_m
FN:156,173,_ZNSt15__new_allocatorINSt8__detail10_Hash_nodeISt4pairIKNSt7__cxx1112basic_stringIcSt11char_traitsIcESaIcEEESt14_List_iteratorIS8_EELb1EEEE10deallocateEPSD_m
FN:156,173,_ZNSt15__new_allocatorINSt8__detail10_Hash_nodeISt4pairIKNSt7__cxx1112basic_stringIcSt11char_traitsIcESaIcEEEmELb1EEEE10deallocateEPSB_m
FN:156,173,_ZNSt15__new_allocatorINSt8__detail10_Hash_nodeISt4pairIKiNSt7__cxx1112basic_stringIcSt11char_traitsIcESaIcEEEELb0EEEE10deallocateEPSB_m
FN:156,173,_ZNSt15__new_allocatorINSt8__detail10_Hash_nodeISt4pairIKiSt14_List_iteratorIiEELb0EEEE10deallocateEPS7_m
FN:156,173,_ZNSt15__new_allocatorINSt8__detail10_Hash_nodeISt4pairIKiiELb0EEEE10deallocateEPS5_m
FN:156,173,_ZNSt15__new_allocatorIPN7testing11EnvironmentEE10deallocateEPS2_m
FN:156,173,_ZNSt15__new_allocatorIPN7testing17TestEventListenerEE10deallocateEPS2_m
FN:156,173,_ZNSt15__new_allocatorIPN7testing8TestInfoEE10deallocateEPS2_m
FN:156,173,_ZNSt15__new_allocatorIPN7testing8internal30ParameterizedTestSuiteInfoBaseEE10deallocateEPS3_m
FN:156,173,_ZNSt15__new_allocatorIPN7testing9TestSuiteEE10deallocateEPS2_m
FN:156,173,_ZNSt15__new_allocatorIPNSt8__detail15_Hash_node_baseEE10deallocateEPS2_m
FN:156,173,_ZNSt15__new_allocatorIPcE10deallocateEPS0_m
FN:156,173,_ZNSt15__new_allocatorISt10_List_nodeINSt7__cxx1112basic_stringIcSt11char_traitsIcESaIcEEEEE10deallocateEPS7_m
FN:156,173,_ZNSt15__new_allocatorISt10_List_nodeISt4pairIcPKcEEE10deallocateEPS5_m
FN:156,173,_ZNSt15__new_allocatorISt10_List_nodeIiEE10deallocateEPS1_m
FN:156,173,_ZNSt15__new_allocatorISt13_Rb_tree_nodeINSt7__cxx1112basic_stringIcSt11char_traitsIcESaIcEEEEE10deallocateEPS7_m
FN:156,173,_ZNSt15__new_allocatorISt13_Rb_tree_nodeISt4pairIKNSt7__cxx1112basic_stringIcSt11char_traitsIcESaIcEEEN7testing8internal34TypeParameterizedTestSuiteRegistry30TypeParameterizedTestSuiteInfoEEEE10deallocateEPSE_m
FN:156,173,_ZNSt15__new_allocatorISt13_Rb_tree_nodeISt4pairIKNSt7__cxx1112basic_stringIcSt11char_traitsIcESaIcEEEmEEE10deallocateEPSA_m
FN:156,173,_ZNSt15__new_allocatorISt6threadE10deallocateEPS0_m
FN:156,173,_ZNSt15__new_allocatorISt6vectorIN7testing8internal13edit_distance8EditTypeESaIS4_EEE10deallocateEPS6_m
FN:156,173,_ZNSt15__new_allocatorISt6vectorIdSaIdEEE10deallocateEPS2_m
FN:156,173,_ZNSt15__new_allocatorIcE10deallocateEPcm
FN:156,173,_ZNSt15__new_allocatorIdE10deallocateEPdm
FN:156,173,_ZNSt15__new_allocatorIiE10deallocateEPim
FN:156,173,_ZNSt15__new_allocatorImE10deallocateEPmm
FN:156,173,_ZNSt15__new_allocatorIwE10deallocateEPwm
FNDA:0,_ZNSt15__new_allocatorIN7testing12TestPropertyEE8allocateEmPKv
FNDA:0,_ZNSt15__new_allocatorIN7testing14TestPartResultEE8allocateEmPKv
FNDA:0,_ZNSt15__new_allocatorIN7testing8internal13edit_distance8EditTypeEE8allocateEmPKv
FNDA:0,_ZNSt15__new_allocatorIN7testing8internal9TraceInfoEE8allocateEmPKv
FNDA:14,_ZNSt15__new_allocatorINSt7__cxx1112basic_stringIcSt11char_traitsIcESaIcEEEE8allocateEmPKv
FNDA:0,_ZNSt15__new_allocatorINSt8__detail10_Hash_nodeINSt7__cxx1112basic_stringIcSt11char_traitsIcESaIcEEELb1EEEE8allocateEmPKv
FNDA:1,_ZNSt15__new_allocatorINSt8__detail10_Hash_nodeISt4pairIKNSt7__cxx1112basic_stringIcSt11char_traitsIcESaIcEEEPN7testing9TestSuiteEELb1EEEE8allocateEmPKv
FNDA:8,_ZNSt15__new_allocatorINSt8__detail10_Hash_nodeISt4pairIKNSt7__cxx1112basic_stringIcSt11char_traitsIcESaIcEEES8_ELb1EEEE8allocateEmPKv
FNDA:4,_ZNSt15__new_allocatorINSt8__detail10_Hash_nodeISt4pairIKNSt7__cxx1112basic_stringIcSt11char_traitsIcESaIcEEESt14_List_iteratorIS8_EELb1EEEE8allocateEmPKv
FNDA:7562,_ZNSt15__new_allocatorINSt8__detail10_Hash_nodeISt4pairIKiNSt7__cxx1112basic_stringIcSt11char_traitsIcESaIcEEEELb0EEEE8allocateEmPKv
FNDA:6500,_ZNSt15__new_allocatorINSt8__detail10_Hash_nodeISt4pairIKiSt14_List_iteratorIiEELb0EEEE8allocateEmPKv
FNDA:54,_ZNSt15__new_allocatorINSt8__detail10_Hash_nodeISt4pairIKiiELb0EEEE8allocateEmPKv
FNDA:0,_ZNSt15__new_allocatorIPN7testing11EnvironmentEE8allocateEmPKv
FNDA:1,_ZNSt15__new_allocatorIPN7testing17TestEventListenerEE8allocateEmPKv
FNDA:5,_ZNSt15__new_allocatorIPN7testing8TestInfoEE8allocateEmPKv
FNDA:1,_ZNSt15__new_allocatorIPN7testing9TestSuiteEE8allocateEmPKv
FNDA:22,_ZNSt15__new_allocatorIPNSt8__detail15_Hash_node_baseEE8allocateEmPKv
FNDA:0,_ZNSt15__new_allocatorIPcE8allocateEmPKv
FNDA:4,_ZNSt15__new_allocatorISt10_List_nodeINSt7__cxx1112basic_stringIcSt11char_traitsIcESaIcEEEEE8allocateEmPKv
FNDA:0,_ZNSt15__new_allocatorISt10_List_nodeISt4pairIcPKcEEE8allocateEmPKv
FNDA:6500,_ZNSt15__new_allocatorISt10_List_nodeIiEE8allocateEmPKv
FNDA:0,_ZNSt15__new_allocatorISt13_Rb_tree_nodeINSt7__cxx1112basic_stringIcSt11char_traitsIcESaIcEEEEE8allocateEmPKv
FNDA:0,_ZNSt15__new_allocatorISt13_Rb_tree_nodeISt4pairIKNSt7__cxx1112basic_stringIcSt11char_traitsIcESaIcEEEN7testing8internal34TypeParameterizedTestSuiteRegistry30TypeParameterizedTestSuiteInfoEEEE8allocateEmPKv
FNDA:0,_ZNSt15__new_allocatorISt13_Rb_tree_nodeISt4pairIKNSt7__cxx1112basic_stringIcSt11char_traitsIcESaIcEEEmEEE8allocateEmPKv
FNDA:5,_ZNSt15__new_allocatorISt6threadE8allocateEmPKv
FNDA:0,_ZNSt15__new_allocatorISt6vectorIN7testing8internal13edit_distance8EditTypeESaIS4_EEE8allocateEmPKv
FNDA:0,_ZNSt15__new_allocatorISt6vectorIdSaIdEEE8allocateEmPKv
FNDA:134,_ZNSt15__new_allocatorIcE8allocateEmPKv
FNDA:0,_ZNSt15__new_allocatorIdE8allocateEmPKv
FNDA:6,_ZNSt15__new_allocatorIiE8allocateEmPKv
FNDA:0,_ZNSt15__new_allocatorImE8allocateEmPKv
FNDA:0,_ZNSt15__new_allocatorIwE8allocateEmPKv
FNDA:0,_ZNSt15__new_allocatorIN7testing12TestPropertyEE10deallocateEPS1_m
FNDA:0,_ZNSt15__new_allocatorIN7testing14TestPartResultEE10deallocateEPS1_m
FNDA:0,_ZNSt15__new_allocatorIN7testing8internal13edit_distance8EditTypeEE10deallocateEPS3_m
FNDA:0,_ZNSt15__new_allocatorIN7testing8internal9TraceInfoEE10deallocateEPS2_m
FNDA:14,_ZNSt15__new_allocatorINSt7__cxx1112basic_stringIcSt11char_traitsIcESaIcEEEE10deallocateEPS5_m
FNDA:0,_ZNSt15__new_allocatorINSt8__detail10_Hash_nodeINSt7__cxx1112basic_stringIcSt11char_traitsIcESaIcEEELb1EEEE10deallocateEPS8_m
FNDA:1,_ZNSt15__new_allocatorINSt8__detail10_Hash_nodeISt4pairIKNSt7__cxx1112basic_stringIcSt11char_traitsIcESaIcEEEPN7testing9TestSuiteEELb1EEEE10deallocateEPSE_m
FNDA:8,_ZNSt15__new_allocatorINSt8__detail10_Hash_nodeISt4pairIKNSt7__cxx1112basic_stringIcSt11char_traitsIcESaIcEEES8_ELb1EEEE10deallocateEPSB_m
FNDA:4,_ZNSt15__new_allocatorINSt8__detail10_Hash_nodeISt4pairIKNSt7__cxx1112basic_stringIcSt11char_traitsIcESaIcEEESt14_List_iteratorIS8_EELb1EEEE10deallocateEPSD_m
FNDA:0,_ZNSt15__new_allocatorINSt8__detail10_Hash_nodeISt4pairIKNSt7__cxx1112basic_stringIcSt11char_traitsIcESaIcEEEmELb1EEEE10deallocateEPSB_m
FNDA:7562,_ZNSt15__new_allocatorINSt8__detail10_Hash_nodeISt4pairIKiNSt7__cxx1112basic_stringIcSt11char_traitsIcESaIcEEEELb0EEEE10deallocateEPSB_m
FNDA:6500,_ZNSt15__new_allocatorINSt8__detail10_Hash_nodeISt4pairIKiSt14_List_iteratorIiEELb0EEEE10deallocateEPS7_m
FNDA:54,_ZNSt15__new_allocatorINSt8__detail10_Hash_nodeISt4pairIKiiELb0EEEE10deallocateEPS5_m
FNDA:0,_ZNSt15__new_allocatorIPN7testing11EnvironmentEE10deallocateEPS2_m
FNDA:1,_ZNSt15__new_allocatorIPN7testing17TestEventListenerEE10deallocateEPS2_m
FNDA:5,_ZNSt15__new_allocatorIPN7testing8TestInfoEE10deallocateEPS2_m
FNDA:0,_ZNSt15__new_allocatorIPN7testing8internal30ParameterizedTestSuiteInfoBaseEE10deallocateEPS3_m
FNDA:1,_ZNSt15__new_allocatorIPN7testing9TestSuiteEE10deallocateEPS2_m
FNDA:22,_ZNSt15__new_allocatorIPNSt8__detail15_Hash_node_baseEE10deallocateEPS2_m
FNDA:0,_ZNSt15__new_allocatorIPcE10deallocateEPS0_m
FNDA:4,_ZNSt15__new_allocatorISt10_List_nodeINSt7__cxx1112basic_stringIcSt11char_traitsIcESaIcEEEEE10deallocateEPS7_m
FNDA:0,_ZNSt15__new_allocatorISt10_List_nodeISt4pairIcPKcEEE10deallocateEPS5_m
FNDA:6500,_ZNSt15__new_allocatorISt10_List_nodeIiEE10deallocateEPS1_m
FNDA:0,_ZNSt15__new_allocatorISt13_Rb_tree_nodeINSt7__cxx1112basic_stringIcSt11char_traitsIcESaIcEEEEE10deallocateEPS7_m
FNDA:0,_ZNSt15__new_allocatorISt13_Rb_tree_nodeISt4pairIKNSt7__cxx1112basic_stringIcSt11char_traitsIcESaIcEEEN7testing8internal34TypeParameterizedTestSuiteRegistry30TypeParameterizedTestSuiteInfoEEEE10deallocateEPSE_m
FNDA:0,_ZNSt15__new_allocatorISt13_Rb_tree_nodeISt4pairIKNSt7__cxx1112basic_stringIcSt11char_traitsIcESaIcEEEmEEE10deallocateEPSA_m
FNDA:5,_ZNSt15__new_allocatorISt6threadE10deallocateEPS0_m
FNDA:0,_ZNSt15__new_allocatorISt6vectorIN7testing8internal13edit_distance8EditTypeESaIS4_EEE10deallocateEPS6_m
FNDA:0,_ZNSt15__new_allocatorISt6vectorIdSaIdEEE10deallocateEPS2_m
FNDA:105,_ZNSt15__new_allocatorIcE10deallocateEPcm
FNDA:0,_ZNSt15__new_allocatorIdE10deallocateEPdm
FNDA:6,_ZNSt15__new_allocatorIiE10deallocateEPim
FNDA:0,_ZNSt15__new_allocatorImE10deallocateEPmm
FNDA:0,_ZNSt15__new_allocatorIwE10deallocateEPwm
FNF:66
FNH:32
DA:88,18708
DA:92,31096
DA:126,20821
DA:134,20821
DA:138,0
DA:139,0
DA:140,0
DA:151,20821
DA:156,20792
DA:172,20792
LF:10
LH:7
end_of_record
TN:
SF:/usr/include/c++/13/bits/predefined_ops.h
FN:157,158,_ZN9__gnu_cxx5__ops15_Iter_comp_iterIZN7testing9TestSuite3RunEvEUlPKNS2_8TestInfoES6_E_EclINS_17__normal_iteratorIPPS4_St6vectorISB_SaISB_EEEESC_EEbT_T0_
FN:157,158,_ZN9__gnu_cxx5__ops15_Iter_comp_iterIZN7testing9TestSuite3RunEvEUlPKNS2_8TestInfoES6_E_EclINS_17__normal_iteratorIPPS4_St6vectorISB_SaISB_EEEESG_EEbT_T0_
FN:157,158,_ZN9__gnu_cxx5__ops15_Iter_comp_iterIZN7testing9TestSuite3RunEvEUlPKNS2_8TestInfoES6_E_EclIPPS4_NS_17__normal_iteratorISB_St6vectorISA_SaISA_EEEEEEbT_T0_
FN:157,158,_ZN9__gnu_cxx5__ops15_Iter_comp_iterIZN7testing9TestSuite3RunEvEUlPKNS2_8TestInfoES6_E_EclIPPS4_SB_EEbT_T0_
FN:195,196,_ZN9__gnu_cxx5__ops14_Iter_comp_valIZN7testing9TestSuite3RunEvEUlPKNS2_8TestInfoES6_E_EclINS_17__normal_iteratorIPPS4_St6vectorISB_SaISB_EEEEKSB_EEbT_RT0_
FN:239,240,_ZN9__gnu_cxx5__ops14_Val_comp_iterIZN7testing9TestSuite3RunEvEUlPKNS2_8TestInfoES6_E_EclIKPS4_NS_17__normal_iteratorIPSA_St6vectorISA_SaISA_EEEEEEbRT_T0_
FN:239,240,_ZN9__gnu_cxx5__ops14_Val_comp_iterIZN7testing9TestSuite3RunEvEUlPKNS2_8TestInfoES6_E_EclIPS4_NS_17__normal_iteratorIPSA_St6vectorISA_SaISA_EEEEEEbRT_T0_
FN:324,325,_ZN9__gnu_cxx5__ops11__pred_iterIN7testing8internal17TestPropertyKeyIsEEENS0_10_Iter_predIT_EES6_
FNDA:0,_ZN9__gnu_cxx5__ops15_Iter_comp_iterIZN7testing9TestSuite3RunEvEUlPKNS2_8TestInfoES6_E_EclINS_17__normal_iteratorIPPS4_St6vectorISB_SaISB_EEEESC_EEbT_T0_
FNDA:7,_ZN9__gnu_cxx5__ops15_Iter_comp_iterIZN7testing9TestSuite3RunEvEUlPKNS2_8TestInfoES6_E_EclINS_17__normal_iteratorIPPS4_St6vectorISB_SaISB_EEEESG_EEbT_T0_
FNDA:4,_ZN9__gnu_cxx5__ops15_Iter_comp_iterIZN7testing9TestSuite3RunEvEUlPKNS2_8TestInfoES6_E_EclIPPS4_NS_17__normal_iteratorISB_St6vectorISA_SaISA_EEEEEEbT_T0_
FNDA:0,_ZN9__gnu_cxx5__ops15_Iter_comp_iterIZN7testing9TestSuite3RunEvEUlPKNS2_8TestInfoES6_E_EclIPPS4_SB_EEbT_T0_
FNDA:0,_ZN9__gnu_cxx5__ops14_Iter_comp_valIZN7testing9TestSuite3RunEvEUlPKNS2_8TestInfoES6_E_EclINS_17__normal_iteratorIPPS4_St6vectorISB_SaISB_EEEEKSB_EEbT_RT0_
FNDA:0,_ZN9__gnu_cxx5__ops14_Val_comp_iterIZN7testing9TestSuite3RunEvEUlPKNS2_8TestInfoES6_E_EclIKPS4_NS_17__normal_iteratorIPSA_St6vectorISA_SaISA_EEEEEEbRT_T0_
FNDA:7,_ZN9__gnu_cxx5__ops14_Val_comp_iterIZN7testing9TestSuite3RunEvEUlPKNS2_8TestInfoES6_E_EclIPS4_NS_17__normal_iteratorIPSA_St6vectorISA_SaISA_EEEEEEbRT_T0_
FNDA:0,_ZN9__gnu_cxx5__ops11__pred_iterIN7testing8internal17TestPropertyKeyIsEEENS0_10_Iter_predIT_EES6_
FNF:8
FNH:3
DA:157,11
DA:158,22
DA:195,0
DA:196,0
DA:239,7
DA:240,14
DA:262,0
DA:269,0
DA:270,0
DA:276,0
DA:277,0
DA:304,0
DA:310,0
DA:311,0
DA:317,0
DA:318,57
DA:324,0
DA:325,0
LF:18
LH:5
end_of_record
TN:
SF:/usr/include/c++/13/bits/random.h
FN:1658,1658,_ZNSt13random_deviceC2Ev
FNDA:10,_ZNSt13random_deviceC2Ev
FNF:1
FNH:1
DA:139,6230
DA:141,6230
DA:143,6230
DA:150,6230
DA:157,6230
DA:158,6240
DA:545,10
DA:546,10
DA:1658,20
DA:1663,10
DA:1664,10
DA:1679,10
DA:1680,10
LF:13
LH:13
end_of_record
TN:
SF:/usr/include/c++/13/bits/random.tcc
FN:397,425,_ZNSt23mersenne_twister_engineImLm32ELm624ELm397ELm31ELm2567483615ELm11ELm4294967295ELm7ELm2636928640ELm15ELm4022730752ELm18ELm1812433253EE11_M_gen_randEv
FN:453,469,_ZNSt23mersenne_twister_engineImLm32ELm624ELm397ELm31ELm2567483615ELm11ELm4294967295ELm7ELm2636928640ELm15ELm4022730752ELm18ELm1812433253EEclEv
FNDA:20,_ZNSt23mersenne_twister_engineImLm32ELm624ELm397ELm31ELm2567483615ELm11ELm4294967295ELm7ELm2636928640ELm15ELm4022730752ELm18ELm1812433253EE11_M_gen_randEv
FNDA:10000,_ZNSt23mersenne_twister_engineImLm32ELm624ELm397ELm31ELm2567483615ELm11ELm4294967295ELm7ELm2636928640ELm15ELm4022730752ELm18ELm1812433253EEclEv
FNF:2
FNH:2
DA:326,10
DA:330,10
DA:331,10
DA:333,6240
DA:335,6230
DA:336,6230
DA:337,6230
DA:338,6230
DA:339,6230
DA:340,6230
DA:342,10
DA:397,20
DA:401,20
DA:402,20
DA:404,4560
DA:406,4540
DA:407,4540
DA:408,9080
DA:409,6768
DA:412,7940
DA:414,7920
DA:415,7920
DA:416,15840
DA:417,11894
DA:420,20
DA:421,20
DA:422,40
DA:423,20
DA:424,20
DA:425,20
DA:453,10000
DA:458,10000
DA:459,20
DA:462,10000
DA:463,10000
DA:464,10000
DA:465,10000
DA:466,10000
DA:468,10000
LF:39
LH:39
end_of_record
TN:
SF:/usr/include/c++/13/bits/std_mutex.h
FN:111,118,_ZNSt5mutex4lockEv
FNDA:43402,_ZNSt5mutex4lockEv
FNF:1
FNH:1
DA:67,9
DA:104,9
DA:111,43402
DA:113,43402
DA:116,43402
DA:117,0
DA:118,43402
DA:129,0
DA:132,0
DA:248,0
DA:249,22327
DA:254,0
DA:255,0
LF:13
LH:7
end_of_record
TN:
SF:/usr/include/c++/13/bits/std_thread.h
FN:143,148,_ZNSt6thread24_M_thread_deps_never_runEv
FN:154,167,_ZNSt6threadC2IRZN36storage_test_test_thread_access_Test8TestBodyEvEUliiE_JRiRKiEvEEOT_DpOT0_
FN:244,244,_ZNSt6thread11_State_implINS_8_InvokerISt5tupleIJZN36storage_test_test_thread_access_Test8TestBodyEvEUliiE_iiEEEEE6_M_runEv
FNDA:0,_ZNSt6thread24_M_thread_deps_never_runEv
FNDA:10,_ZNSt6threadC2IRZN36storage_test_test_thread_access_Test8TestBodyEvEUliiE_JRiRKiEvEEOT_DpOT0_
FNDA:10,_ZNSt6thread11_State_implINS_8_InvokerISt5tupleIJZN36storage_test_test_thread_access_Test8TestBodyEvEUliiE_iiEEEEE6_M_runEv
FNF:3
FNH:2
DA:97,50
DA:143,0
DA:148,0
DA:154,10
DA:155,10
DA:164,20
DA:167,10
DA:170,25
DA:172,25
DA:173,0
DA:174,25
DA:178,15
DA:179,15
DA:192,15
DA:193,15
DA:196,25
DA:197,25
DA:225,10
DA:239,10
DA:240,10
DA:244,10
DA:276,10
DA:277,10
DA:291,10
DA:292,20
DA:295,10
DA:299,10
DA:324,25
DA:330,25
LF:29
LH:26
end_of_record
TN:
SF:/usr/include/c++/13/bits/stl_algo.h
FN:1283,1362,_ZNSt3_V28__rotateIN9__gnu_cxx17__normal_iteratorIPPN7testing8TestInfoESt6vectorIS5_SaIS5_EEEEEET_SB_SB_SB_St26random_access_iterator_tag
FN:1472,1495,_ZSt11__partitionIN9__gnu_cxx17__normal_iteratorIPNSt7__cxx1112basic_stringIcSt11char_traitsIcESaIcEEESt6vectorIS7_SaIS7_EEEEPFbRKS7_EET_SH_SH_T0_St26bidirectional_iterator_tag
FN:1792,1806,_ZSt25__unguarded_linear_insertIN9__gnu_cxx17__normal_iteratorIPPN7testing8TestInfoESt6vectorIS4_SaIS4_EEEENS0_5__ops14_Val_comp_iterIZNS2_9TestSuite3RunEvEUlPKS3_SE_E_EEEvT_T0_
FN:1812,1830,_ZSt16__insertion_sortIN9__gnu_cxx17__normal_iteratorIPPN7testing8TestInfoESt6vectorIS4_SaIS4_EEEENS0_5__ops15_Iter_comp_iterIZNS2_9TestSuite3RunEvEUlPKS3_SE_E_EEEvT_SH_T0_
FN:2022,2045,_ZSt13__upper_boundIN9__gnu_cxx17__normal_iteratorIPPN7testing8TestInfoESt6vectorIS4_SaIS4_EEEES4_NS0_5__ops14_Val_comp_iterIZNS2_9TestSuite3RunEvEUlPKS3_SE_E_EEET_SH_SH_RKT0_T1_
FN:2294,2314,_ZSt21__move_merge_adaptiveIPPN7testing8TestInfoEN9__gnu_cxx17__normal_iteratorIS3_St6vectorIS2_SaIS2_EEEES9_NS4_5__ops15_Iter_comp_iterIZNS0_9TestSuite3RunEvEUlPKS1_SE_E_EEEvT_SH_T0_SI_T1_T2_
FN:2320,2357,_ZSt30__move_merge_adaptive_backwardIN9__gnu_cxx17__normal_iteratorIPPN7testing8TestInfoESt6vectorIS4_SaIS4_EEEES5_S9_NS0_5__ops15_Iter_comp_iterIZNS2_9TestSuite3RunEvEUlPKS3_SE_E_EEEvT_SH_T0_SI_T1_T2_
FN:2363,2395,_ZSt17__rotate_adaptiveIN9__gnu_cxx17__normal_iteratorIPPN7testing8TestInfoESt6vectorIS4_SaIS4_EEEES5_lET_SA_SA_SA_T1_SB_T0_SB_
FN:2401,2419,_ZSt16__merge_adaptiveIN9__gnu_cxx17__normal_iteratorIPPN7testing8TestInfoESt6vectorIS4_SaIS4_EEEElS5_NS0_5__ops15_Iter_comp_iterIZNS2_9TestSuite3RunEvEUlPKS3_SE_E_EEEvT_SH_SH_T0_SI_T1_T2_
FN:2424,2471,_ZSt23__merge_adaptive_resizeIN9__gnu_cxx17__normal_iteratorIPPN7testing8TestInfoESt6vectorIS4_SaIS4_EEEElS5_NS0_5__ops15_Iter_comp_iterIZNS2_9TestSuite3RunEvEUlPKS3_SE_E_EEEvT_SH_SH_T0_SI_T1_SI_T2_
FN:2477,2522,_ZSt22__merge_without_bufferIN9__gnu_cxx17__normal_iteratorIPPN7testing8TestInfoESt6vectorIS4_SaIS4_EEEElNS0_5__ops15_Iter_comp_iterIZNS2_9TestSuite3RunEvEUlPKS3_SE_E_EEEvT_SH_SH_T0_SI_T1_
FN:2649,2670,_ZSt12__move_mergeIN9__gnu_cxx17__normal_iteratorIPPN7testing8TestInfoESt6vectorIS4_SaIS4_EEEES5_NS0_5__ops15_Iter_comp_iterIZNS2_9TestSuite3RunEvEUlPKS3_SE_E_EEET0_T_SI_SI_SI_SH_T1_
FN:2649,2670,_ZSt12__move_mergeIPPN7testing8TestInfoEN9__gnu_cxx17__normal_iteratorIS3_St6vectorIS2_SaIS2_EEEENS4_5__ops15_Iter_comp_iterIZNS0_9TestSuite3RunEvEUlPKS1_SE_E_EEET0_T_SI_SI_SI_SH_T1_
FN:2675,2694,_ZSt17__merge_sort_loopIN9__gnu_cxx17__normal_iteratorIPPN7testing8TestInfoESt6vectorIS4_SaIS4_EEEES5_lNS0_5__ops15_Iter_comp_iterIZNS2_9TestSuite3RunEvEUlPKS3_SE_E_EEEvT_SH_T0_T1_T2_
FN:2675,2694,_ZSt17__merge_sort_loopIPPN7testing8TestInfoEN9__gnu_cxx17__normal_iteratorIS3_St6vectorIS2_SaIS2_EEEElNS4_5__ops15_Iter_comp_iterIZNS0_9TestSuite3RunEvEUlPKS1_SE_E_EEEvT_SH_T0_T1_T2_
FN:2700,2710,_ZSt22__chunk_insertion_sortIN9__gnu_cxx17__normal_iteratorIPPN7testing8TestInfoESt6vectorIS4_SaIS4_EEEElNS0_5__ops15_Iter_comp_iterIZNS2_9TestSuite3RunEvEUlPKS3_SE_E_EEEvT_SH_T0_T1_
FN:2716,2738,_ZSt24__merge_sort_with_bufferIN9__gnu_cxx17__normal_iteratorIPPN7testing8TestInfoESt6vectorIS4_SaIS4_EEEES5_NS0_5__ops15_Iter_comp_iterIZNS2_9TestSuite3RunEvEUlPKS3_SE_E_EEEvT_SH_T0_T1_
FN:2742,2753,_ZSt22__stable_sort_adaptiveIN9__gnu_cxx17__normal_iteratorIPPN7testing8TestInfoESt6vectorIS4_SaIS4_EEEES5_NS0_5__ops15_Iter_comp_iterIZNS2_9TestSuite3RunEvEUlPKS3_SE_E_EEEvT_SH_SH_T0_T1_
FN:2758,2780,_ZSt29__stable_sort_adaptive_resizeIN9__gnu_cxx17__normal_iteratorIPPN7testing8TestInfoESt6vectorIS4_SaIS4_EEEES5_lNS0_5__ops15_Iter_comp_iterIZNS2_9TestSuite3RunEvEUlPKS3_SE_E_EEEvT_SH_T0_T1_T2_
FN:2785,2800,_ZSt21__inplace_stable_sortIN9__gnu_cxx17__normal_iteratorIPPN7testing8TestInfoESt6vectorIS4_SaIS4_EEEENS0_5__ops15_Iter_comp_iterIZNS2_9TestSuite3RunEvEUlPKS3_SE_E_EEEvT_SH_T0_
FN:3889,3899,_ZSt4findIN9__gnu_cxx17__normal_iteratorIPKNSt7__cxx1112basic_stringIcSt11char_traitsIcESaIcEEESt6vectorIS7_SaIS7_EEEES7_ET_SE_SE_RKT0_
FN:3914,3925,_ZSt7find_ifIN9__gnu_cxx17__normal_iteratorIPKNSt7__cxx1112basic_stringIcSt11char_traitsIcESaIcEEESt6vectorIS7_SaIS7_EEEEZNK7testing8internal12_GLOBAL__N_114UnitTestFilter11MatchesNameERS8_EUlSI_E_ET_SK_SK_T0_
FN:3914,3925,_ZSt7find_ifIN9__gnu_cxx17__normal_iteratorIPN7testing12TestPropertyESt6vectorIS3_SaIS3_EEEENS2_8internal17TestPropertyKeyIsEET_SB_SB_T0_
FN:5023,5052,_ZSt13__stable_sortIN9__gnu_cxx17__normal_iteratorIPPN7testing8TestInfoESt6vectorIS4_SaIS4_EEEENS0_5__ops15_Iter_comp_iterIZNS2_9TestSuite3RunEvEUlPKS3_SE_E_EEEvT_SH_T0_
FNDA:0,_ZNSt3_V28__rotateIN9__gnu_cxx17__normal_iteratorIPPN7testing8TestInfoESt6vectorIS5_SaIS5_EEEEEET_SB_SB_SB_St26random_access_iterator_tag
FNDA:4,_ZSt11__partitionIN9__gnu_cxx17__normal_iteratorIPNSt7__cxx1112basic_stringIcSt11char_traitsIcESaIcEEESt6vectorIS7_SaIS7_EEEEPFbRKS7_EET_SH_SH_T0_St26bidirectional_iterator_tag
FNDA:7,_ZSt25__unguarded_linear_insertIN9__gnu_cxx17__normal_iteratorIPPN7testing8TestInfoESt6vectorIS4_SaIS4_EEEENS0_5__ops14_Val_comp_iterIZNS2_9TestSuite3RunEvEUlPKS3_SE_E_EEEvT_T0_
FNDA:2,_ZSt16__insertion_sortIN9__gnu_cxx17__normal_iteratorIPPN7testing8TestInfoESt6vectorIS4_SaIS4_EEEENS0_5__ops15_Iter_comp_iterIZNS2_9TestSuite3RunEvEUlPKS3_SE_E_EEEvT_SH_T0_
FNDA:0,_ZSt13__upper_boundIN9__gnu_cxx17__normal_iteratorIPPN7testing8TestInfoESt6vectorIS4_SaIS4_EEEES4_NS0_5__ops14_Val_comp_iterIZNS2_9TestSuite3RunEvEUlPKS3_SE_E_EEET_SH_SH_RKT0_T1_
FNDA:0,_ZSt21__move_merge_adaptiveIPPN7testing8TestInfoEN9__gnu_cxx17__normal_iteratorIS3_St6vectorIS2_SaIS2_EEEES9_NS4_5__ops15_Iter_comp_iterIZNS0_9TestSuite3RunEvEUlPKS1_SE_E_EEEvT_SH_T0_SI_T1_T2_
FNDA:1,_ZSt30__move_merge_adaptive_backwardIN9__gnu_cxx17__normal_iteratorIPPN7testing8TestInfoESt6vectorIS4_SaIS4_EEEES5_S9_NS0_5__ops15_Iter_comp_iterIZNS2_9TestSuite3RunEvEUlPKS3_SE_E_EEEvT_SH_T0_SI_T1_T2_
FNDA:0,_ZSt17__rotate_adaptiveIN9__gnu_cxx17__normal_iteratorIPPN7testing8TestInfoESt6vectorIS4_SaIS4_EEEES5_lET_SA_SA_SA_T1_SB_T0_SB_
FNDA:1,_ZSt16__merge_adaptiveIN9__gnu_cxx17__normal_iteratorIPPN7testing8TestInfoESt6vectorIS4_SaIS4_EEEElS5_NS0_5__ops15_Iter_comp_iterIZNS2_9TestSuite3RunEvEUlPKS3_SE_E_EEEvT_SH_SH_T0_SI_T1_T2_
FNDA:0,_ZSt23__merge_adaptive_resizeIN9__gnu_cxx17__normal_iteratorIPPN7testing8TestInfoESt6vectorIS4_SaIS4_EEEElS5_NS0_5__ops15_Iter_comp_iterIZNS2_9TestSuite3RunEvEUlPKS3_SE_E_EEEvT_SH_SH_T0_SI_T1_SI_T2_
FNDA:0,_ZSt22__merge_without_bufferIN9__gnu_cxx17__normal_iteratorIPPN7testing8TestInfoESt6vectorIS4_SaIS4_EEEElNS0_5__ops15_Iter_comp_iterIZNS2_9TestSuite3RunEvEUlPKS3_SE_E_EEEvT_SH_SH_T0_SI_T1_
FNDA:0,_ZSt12__move_mergeIN9__gnu_cxx17__normal_iteratorIPPN7testing8TestInfoESt6vectorIS4_SaIS4_EEEES5_NS0_5__ops15_Iter_comp_iterIZNS2_9TestSuite3RunEvEUlPKS3_SE_E_EEET0_T_SI_SI_SI_SH_T1_
FNDA:0,_ZSt12__move_mergeIPPN7testing8TestInfoEN9__gnu_cxx17__normal_iteratorIS3_St6vectorIS2_SaIS2_EEEENS4_5__ops15_Iter_comp_iterIZNS0_9TestSuite3RunEvEUlPKS1_SE_E_EEET0_T_SI_SI_SI_SH_T1_
FNDA:0,_ZSt17__merge_sort_loopIN9__gnu_cxx17__normal_iteratorIPPN7testing8TestInfoESt6vectorIS4_SaIS4_EEEES5_lNS0_5__ops15_Iter_comp_iterIZNS2_9TestSuite3RunEvEUlPKS3_SE_E_EEEvT_SH_T0_T1_T2_
FNDA:0,_ZSt17__merge_sort_loopIPPN7testing8TestInfoEN9__gnu_cxx17__normal_iteratorIS3_St6vectorIS2_SaIS2_EEEElNS4_5__ops15_Iter_comp_iterIZNS0_9TestSuite3RunEvEUlPKS1_SE_E_EEEvT_SH_T0_T1_T2_
FNDA:2,_ZSt22__chunk_insertion_sortIN9__gnu_cxx17__normal_iteratorIPPN7testing8TestInfoESt6vectorIS4_SaIS4_EEEElNS0_5__ops15_Iter_comp_iterIZNS2_9TestSuite3RunEvEUlPKS3_SE_E_EEEvT_SH_T0_T1_
FNDA:2,_ZSt24__merge_sort_with_bufferIN9__gnu_cxx17__normal_iteratorIPPN7testing8TestInfoESt6vectorIS4_SaIS4_EEEES5_NS0_5__ops15_Iter_comp_iterIZNS2_9TestSuite3RunEvEUlPKS3_SE_E_EEEvT_SH_T0_T1_
FNDA:1,_ZSt22__stable_sort_adaptiveIN9__gnu_cxx17__normal_iteratorIPPN7testing8TestInfoESt6vectorIS4_SaIS4_EEEES5_NS0_5__ops15_Iter_comp_iterIZNS2_9TestSuite3RunEvEUlPKS3_SE_E_EEEvT_SH_SH_T0_T1_
FNDA:0,_ZSt29__stable_sort_adaptive_resizeIN9__gnu_cxx17__normal_iteratorIPPN7testing8TestInfoESt6vectorIS4_SaIS4_EEEES5_lNS0_5__ops15_Iter_comp_iterIZNS2_9TestSuite3RunEvEUlPKS3_SE_E_EEEvT_SH_T0_T1_T2_
FNDA:0,_ZSt21__inplace_stable_sortIN9__gnu_cxx17__normal_iteratorIPPN7testing8TestInfoESt6vectorIS4_SaIS4_EEEENS0_5__ops15_Iter_comp_iterIZNS2_9TestSuite3RunEvEUlPKS3_SE_E_EEEvT_SH_T0_
FNDA:0,_ZSt4findIN9__gnu_cxx17__normal_iteratorIPKNSt7__cxx1112basic_stringIcSt11char_traitsIcESaIcEEESt6vectorIS7_SaIS7_EEEES7_ET_SE_SE_RKT0_
FNDA:39,_ZSt7find_ifIN9__gnu_cxx17__normal_iteratorIPKNSt7__cxx1112basic_stringIcSt11char_traitsIcESaIcEEESt6vectorIS7_SaIS7_EEEEZNK7testing8internal12_GLOBAL__N_114UnitTestFilter11MatchesNameERS8_EUlSI_E_ET_SK_SK_T0_
FNDA:0,_ZSt7find_ifIN9__gnu_cxx17__normal_iteratorIPN7testing12TestPropertyESt6vectorIS3_SaIS3_EEEENS2_8internal17TestPropertyKeyIsEET_SB_SB_T0_
FNDA:1,_ZSt13__stable_sortIN9__gnu_cxx17__normal_iteratorIPPN7testing8TestInfoESt6vectorIS4_SaIS4_EEEENS0_5__ops15_Iter_comp_iterIZNS2_9TestSuite3RunEvEUlPKS3_SE_E_EEEvT_SH_T0_
FNF:24
FNH:10
DA:476,45
DA:477,39
DA:495,39
DA:496,39
DA:1102,0
DA:1105,0
DA:1107,0
DA:1108,0
DA:1110,0
DA:1112,0
DA:1131,0
DA:1283,0
DA:1292,0
DA:1293,0
DA:1294,0
DA:1295,0
DA:1302,0
DA:1303,0
DA:1305,0
DA:1307,0
DA:1308,0
DA:1311,0
DA:1312,0
DA:1316,0
DA:1318,0
DA:1320,0
DA:1321,0
DA:1322,0
DA:1323,0
DA:1325,0
DA:1326,0
DA:1328,0
DA:1329,0
DA:1330,0
DA:1332,0
DA:1333,0
DA:1334,0
DA:1335,0
DA:1336,0
DA:1340,0
DA:1341,0
DA:1343,0
DA:1344,0
DA:1345,0
DA:1346,0
DA:1348,0
DA:1349,0
DA:1350,0
DA:1352,0
DA:1353,0
DA:1354,0
DA:1356,0
DA:1357,0
DA:1358,0
DA:1390,0
DA:1399,0
DA:1472,4
DA:1475,0
DA:1477,6
DA:1478,10
DA:1479,4
DA:1480,6
DA:1481,6
DA:1484,0
DA:1485,0
DA:1486,0
DA:1487,0
DA:1488,0
DA:1489,0
DA:1492,0
DA:1493,0
DA:1792,7
DA:1796,7
DA:1797,7
DA:1798,7
DA:1799,7
DA:1801,0
DA:1802,0
DA:1803,0
DA:1805,7
DA:1806,7
DA:1812,2
DA:1815,2
DA:1817,9
DA:1819,7
DA:1822,0
DA:1823,0
DA:1824,0
DA:1827,7
DA:2022,0
DA:2028,0
DA:2030,0
DA:2032,0
DA:2033,0
DA:2034,0
DA:2035,0
DA:2039,0
DA:2040,0
DA:2041,0
DA:2044,0
DA:2294,0
DA:2298,0
DA:2300,0
DA:2302,0
DA:2303,0
DA:2307,0
DA:2308,0
DA:2310,0
DA:2312,0
DA:2313,0
DA:2314,0
DA:2320,1
DA:2327,1
DA:2329,0
DA:2330,0
DA:2332,1
DA:2335,1
DA:2336,1
DA:2339,4
DA:2341,0
DA:2342,0
DA:2344,0
DA:2345,0
DA:2347,0
DA:2351,4
DA:2352,4
DA:2354,3
DA:2363,0
DA:2371,0
DA:2373,0
DA:2375,0
DA:2376,0
DA:2377,0
DA:2380,0
DA:2382,0
DA:2384,0
DA:2386,0
DA:2387,0
DA:2388,0
DA:2391,0
DA:2394,0
DA:2401,1
DA:2407,1
DA:2409,0
DA:2410,0
DA:2415,1
DA:2416,1
DA:2419,1
DA:2424,0
DA:2431,0
DA:2432,0
DA:2436,0
DA:2437,0
DA:2438,0
DA:2439,0
DA:2440,0
DA:2442,0
DA:2443,0
DA:2445,0
DA:2447,0
DA:2451,0
DA:2452,0
DA:2454,0
DA:2456,0
DA:2460,0
DA:2463,0
DA:2466,0
DA:2471,0
DA:2477,0
DA:2483,0
DA:2484,0
DA:2486,0
DA:2488,0
DA:2489,0
DA:2490,0
DA:2493,0
DA:2494,0
DA:2495,0
DA:2496,0
DA:2497,0
DA:2499,0
DA:2500,0
DA:2502,0
DA:2504,0
DA:2508,0
DA:2509,0
DA:2511,0
DA:2513,0
DA:2517,0
DA:2518,0
DA:2520,0
DA:2649,0
DA:2653,0
DA:2655,0
DA:2657,0
DA:2658,0
DA:2662,0
DA:2663,0
DA:2665,0
DA:2667,0
DA:2675,0
DA:2680,0
DA:2682,0
DA:2684,0
DA:2685,0
DA:2686,0
DA:2688,0
DA:2690,0
DA:2692,0
DA:2693,0
DA:2694,0
DA:2700,2
DA:2704,2
DA:2706,0
DA:2707,0
DA:2709,2
DA:2710,2
DA:2716,2
DA:2723,2
DA:2724,2
DA:2726,2
DA:2727,2
DA:2729,2
DA:2731,0
DA:2733,0
DA:2734,0
DA:2736,0
DA:2738,2
DA:2742,1
DA:2747,1
DA:2748,1
DA:2750,1
DA:2753,1
DA:2758,0
DA:2763,0
DA:2764,0
DA:2765,0
DA:2767,0
DA:2769,0
DA:2771,0
DA:2772,0
DA:2773,0
DA:2778,0
DA:2780,0
DA:2785,0
DA:2788,0
DA:2790,0
DA:2791,0
DA:2793,0
DA:2794,0
DA:2795,0
DA:2796,0
DA:3827,1
DA:3832,29
DA:3833,21
DA:3889,0
DA:3897,0
DA:3898,0
DA:3914,45
DA:3923,45
DA:3924,39
DA:4662,4
DA:4672,4
DA:5023,1
DA:5031,1
DA:5038,1
DA:5040,1
DA:5041,1
DA:5042,1
DA:5044,0
DA:5045,0
DA:5047,0
DA:5048,0
DA:5052,1
DA:5107,1
DA:5119,1
LF:276
LH:69
end_of_record
TN:
SF:/usr/include/c++/13/bits/stl_algobase.h
FN:1459,1482,_ZSt13__lower_boundIN9__gnu_cxx17__normal_iteratorIPPN7testing8TestInfoESt6vectorIS4_SaIS4_EEEES4_NS0_5__ops14_Iter_comp_valIZNS2_9TestSuite3RunEvEUlPKS3_SE_E_EEET_SH_SH_RKT0_T1_
FN:2064,2110,_ZSt9__find_ifIN9__gnu_cxx17__normal_iteratorIPKNSt7__cxx1112basic_stringIcSt11char_traitsIcESaIcEEESt6vectorIS7_SaIS7_EEEENS0_5__ops10_Iter_predIZNK7testing8internal12_GLOBAL__N_114UnitTestFilter11MatchesNameERS8_EUlSK_E_EEET_SN_SN_T0_St26random_access_iterator_tag
FN:2064,2110,_ZSt9__find_ifIN9__gnu_cxx17__normal_iteratorIPKNSt7__cxx1112basic_stringIcSt11char_traitsIcESaIcEEESt6vectorIS7_SaIS7_EEEENS0_5__ops16_Iter_equals_valIS8_EEET_SH_SH_T0_St26random_access_iterator_tag
FN:2064,2110,_ZSt9__find_ifIN9__gnu_cxx17__normal_iteratorIPKcNSt7__cxx1112basic_stringIcSt11char_traitsIcESaIcEEEEENS0_5__ops10_Iter_predIZN7testing8internal12_GLOBAL__N_113IsGlobPatternERKS9_EUlcE_EEET_SK_SK_T0_St26random_access_iterator_tag
FN:2064,2110,_ZSt9__find_ifIN9__gnu_cxx17__normal_iteratorIPN7testing12TestPropertyESt6vectorIS3_SaIS3_EEEENS0_5__ops10_Iter_predINS2_8internal17TestPropertyKeyIsEEEET_SE_SE_T0_St26random_access_iterator_tag
FN:2115,2119,_ZSt9__find_ifIN9__gnu_cxx17__normal_iteratorIPN7testing12TestPropertyESt6vectorIS3_SaIS3_EEEENS0_5__ops10_Iter_predINS2_8internal17TestPropertyKeyIsEEEET_SE_SE_T0_
FN:408,418,_ZNSt11__copy_moveILb1ELb0ESt26random_access_iterator_tagE8__copy_mIPNSt7__cxx1112basic_stringIcSt11char_traitsIcESaIcEEESt15insert_iteratorISt13unordered_setIS8_St4hashIS8_ESt8equal_toIS8_ESaIS8_EEEEET0_T_SK_SJ_
FN:408,418,_ZNSt11__copy_moveILb1ELb0ESt26random_access_iterator_tagE8__copy_mIPNSt7__cxx1112basic_stringIcSt11char_traitsIcESaIcEEESt15insert_iteratorISt6vectorIS8_SaIS8_EEEEET0_T_SG_SF_
FN:538,544,_ZSt13__copy_move_aILb1EN9__gnu_cxx17__normal_iteratorIPNSt7__cxx1112basic_stringIcSt11char_traitsIcESaIcEEESt6vectorIS7_SaIS7_EEEESt15insert_iteratorISB_EET1_T0_SG_SF_
FN:538,544,_ZSt13__copy_move_aILb1EN9__gnu_cxx17__normal_iteratorIPNSt7__cxx1112basic_stringIcSt11char_traitsIcESaIcEEESt6vectorIS7_SaIS7_EEEESt15insert_iteratorISt13unordered_setIS7_St4hashIS7_ESt8equal_toIS7_ESA_EEET1_T0_SM_SL_
FN:538,544,_ZSt13__copy_move_aILb1EN9__gnu_cxx17__normal_iteratorIPPN7testing17TestEventListenerESt6vectorIS4_SaIS4_EEEES9_ET1_T0_SB_SA_
FN:538,544,_ZSt13__copy_move_aILb1EN9__gnu_cxx17__normal_iteratorIPPN7testing8TestInfoESt6vectorIS4_SaIS4_EEEES9_ET1_T0_SB_SA_
FN:538,544,_ZSt13__copy_move_aILb1EPPN7testing8TestInfoEN9__gnu_cxx17__normal_iteratorIS3_St6vectorIS2_SaIS2_EEEEET1_T0_SB_SA_
FN:744,753,_ZNSt20__copy_move_backwardILb1ELb1ESt26random_access_iterator_tagE13__copy_move_bIPN7testing8TestInfoES5_EEPT0_PT_S9_S7_
FN:744,753,_ZNSt20__copy_move_backwardILb1ELb1ESt26random_access_iterator_tagE13__copy_move_bIPN7testing9TestSuiteES5_EEPT0_PT_S9_S7_
FNDA:0,_ZSt13__lower_boundIN9__gnu_cxx17__normal_iteratorIPPN7testing8TestInfoESt6vectorIS4_SaIS4_EEEES4_NS0_5__ops14_Iter_comp_valIZNS2_9TestSuite3RunEvEUlPKS3_SE_E_EEET_SH_SH_RKT0_T1_
FNDA:39,_ZSt9__find_ifIN9__gnu_cxx17__normal_iteratorIPKNSt7__cxx1112basic_stringIcSt11char_traitsIcESaIcEEESt6vectorIS7_SaIS7_EEEENS0_5__ops10_Iter_predIZNK7testing8internal12_GLOBAL__N_114UnitTestFilter11MatchesNameERS8_EUlSK_E_EEET_SN_SN_T0_St26random_access_iterator_tag
FNDA:0,_ZSt9__find_ifIN9__gnu_cxx17__normal_iteratorIPKNSt7__cxx1112basic_stringIcSt11char_traitsIcESaIcEEESt6vectorIS7_SaIS7_EEEENS0_5__ops16_Iter_equals_valIS8_EEET_SH_SH_T0_St26random_access_iterator_tag
FNDA:6,_ZSt9__find_ifIN9__gnu_cxx17__normal_iteratorIPKcNSt7__cxx1112basic_stringIcSt11char_traitsIcESaIcEEEEENS0_5__ops10_Iter_predIZN7testing8internal12_GLOBAL__N_113IsGlobPatternERKS9_EUlcE_EEET_SK_SK_T0_St26random_access_iterator_tag
FNDA:0,_ZSt9__find_ifIN9__gnu_cxx17__normal_iteratorIPN7testing12TestPropertyESt6vectorIS3_SaIS3_EEEENS0_5__ops10_Iter_predINS2_8internal17TestPropertyKeyIsEEEET_SE_SE_T0_St26random_access_iterator_tag
FNDA:0,_ZSt9__find_ifIN9__gnu_cxx17__normal_iteratorIPN7testing12TestPropertyESt6vectorIS3_SaIS3_EEEENS0_5__ops10_Iter_predINS2_8internal17TestPropertyKeyIsEEEET_SE_SE_T0_
FNDA:4,_ZNSt11__copy_moveILb1ELb0ESt26random_access_iterator_tagE8__copy_mIPNSt7__cxx1112basic_stringIcSt11char_traitsIcESaIcEEESt15insert_iteratorISt13unordered_setIS8_St4hashIS8_ESt8equal_toIS8_ESaIS8_EEEEET0_T_SK_SJ_
FNDA:4,_ZNSt11__copy_moveILb1ELb0ESt26random_access_iterator_tagE8__copy_mIPNSt7__cxx1112basic_stringIcSt11char_traitsIcESaIcEEESt15insert_iteratorISt6vectorIS8_SaIS8_EEEEET0_T_SG_SF_
FNDA:4,_ZSt13__copy_move_aILb1EN9__gnu_cxx17__normal_iteratorIPNSt7__cxx1112basic_stringIcSt11char_traitsIcESaIcEEESt6vectorIS7_SaIS7_EEEESt15insert_iteratorISB_EET1_T0_SG_SF_
FNDA:4,_ZSt13__copy_move_aILb1EN9__gnu_cxx17__normal_iteratorIPNSt7__cxx1112basic_stringIcSt11char_traitsIcESaIcEEESt6vectorIS7_SaIS7_EEEESt15insert_iteratorISt13unordered_setIS7_St4hashIS7_ESt8equal_toIS7_ESA_EEET1_T0_SM_SL_
FNDA:0,_ZSt13__copy_move_aILb1EN9__gnu_cxx17__normal_iteratorIPPN7testing17TestEventListenerESt6vectorIS4_SaIS4_EEEES9_ET1_T0_SB_SA_
FNDA:0,_ZSt13__copy_move_aILb1EN9__gnu_cxx17__normal_iteratorIPPN7testing8TestInfoESt6vectorIS4_SaIS4_EEEES9_ET1_T0_SB_SA_
FNDA:0,_ZSt13__copy_move_aILb1EPPN7testing8TestInfoEN9__gnu_cxx17__normal_iteratorIS3_St6vectorIS2_SaIS2_EEEEET1_T0_SB_SA_
FNDA:0,_ZNSt20__copy_move_backwardILb1ELb1ESt26random_access_iterator_tagE13__copy_move_bIPN7testing8TestInfoES5_EEPT0_PT_S9_S7_
FNDA:0,_ZNSt20__copy_move_backwardILb1ELb1ESt26random_access_iterator_tagE13__copy_move_bIPN7testing9TestSuiteES5_EEPT0_PT_S9_S7_
FNF:15
FNH:6
DA:155,0
DA:185,0
DA:214,0
DA:215,0
DA:233,0
DA:238,0
DA:239,0
DA:257,5
DA:262,27
DA:263,1
DA:331,0
DA:332,0
DA:397,0
DA:398,0
DA:408,8
DA:411,14
DA:413,6
DA:414,6
DA:417,8
DA:422,0
DA:423,0
DA:433,0
DA:435,0
DA:436,0
DA:437,0
DA:438,0
DA:440,0
DA:441,0
DA:497,0
DA:506,0
DA:532,0
DA:533,0
DA:538,8
DA:540,8
DA:543,8
DA:624,0
DA:633,0
DA:657,1
DA:665,5
DA:727,0
DA:730,0
DA:731,0
DA:732,0
DA:744,0
DA:746,0
DA:747,0
DA:748,0
DA:749,0
DA:751,0
DA:752,0
DA:759,0
DA:769,0
DA:777,0
DA:778,0
DA:805,0
DA:807,0
DA:892,0
DA:901,0
DA:915,0
DA:918,0
DA:919,0
DA:926,0
DA:929,0
DA:930,0
DA:931,0
DA:976,0
DA:977,0
DA:1117,0
DA:1123,0
DA:1128,0
DA:1152,0
DA:1157,0
DA:1459,0
DA:1465,0
DA:1467,0
DA:1469,0
DA:1470,0
DA:1471,0
DA:1472,0
DA:1474,0
DA:1475,0
DA:1476,0
DA:1481,0
DA:2064,45
DA:2068,45
DA:2070,47
DA:2072,5
DA:2073,3
DA:2074,2
DA:2076,2
DA:2077,0
DA:2078,2
DA:2080,2
DA:2081,0
DA:2082,2
DA:2084,2
DA:2085,0
DA:2086,2
DA:2089,42
DA:2091,0
DA:2092,0
DA:2093,0
DA:2094,0
DA:2096,20
DA:2097,20
DA:2098,0
DA:2099,20
DA:2101,32
DA:2102,32
DA:2103,13
DA:2106,29
DA:2108,29
DA:2115,0
DA:2117,0
DA:2118,0
LF:115
LH:34
end_of_record
TN:
SF:/usr/include/c++/13/bits/stl_construct.h
FN:160,164,_ZNSt12_Destroy_auxILb0EE9__destroyIPSt6vectorIN7testing8internal13edit_distance8EditTypeESaIS6_EEEEvT_SA_
FN:160,164,_ZNSt12_Destroy_auxILb0EE9__destroyIPSt6vectorIdSaIdEEEEvT_S6_
FN:182,197,_ZSt8_DestroyIPN7testing12TestPropertyEEvT_S3_
FN:182,197,_ZSt8_DestroyIPN7testing14TestPartResultEEvT_S3_
FN:182,197,_ZSt8_DestroyIPNSt7__cxx1112basic_stringIcSt11char_traitsIcESaIcEEEEvT_S7_
FN:182,197,_ZSt8_DestroyIPPN7testing11EnvironmentEEvT_S4_
FN:182,197,_ZSt8_DestroyIPPN7testing17TestEventListenerEEvT_S4_
FN:182,197,_ZSt8_DestroyIPPN7testing8TestInfoEEvT_S4_
FN:182,197,_ZSt8_DestroyIPPN7testing9TestSuiteEEvT_S4_
FN:182,197,_ZSt8_DestroyIPPcEvT_S2_
FN:182,197,_ZSt8_DestroyIPSt6threadEvT_S2_
FN:182,197,_ZSt8_DestroyIPSt6vectorIN7testing8internal13edit_distance8EditTypeESaIS4_EEEvT_S8_
FN:182,197,_ZSt8_DestroyIPSt6vectorIdSaIdEEEvT_S4_
FN:182,197,_ZSt8_DestroyIPiEvT_S1_
FN:182,197,_ZSt8_DestroyIPmEvT_S1_
FN:80,89,_ZSt10destroy_atIN7testing8internal9TraceInfoEEvPT_
FN:80,89,_ZSt10destroy_atISt4pairIKNSt7__cxx1112basic_stringIcSt11char_traitsIcESaIcEEEN7testing8internal34TypeParameterizedTestSuiteRegistry30TypeParameterizedTestSuiteInfoEEEvPT_
FN:80,89,_ZSt10destroy_atISt4pairIKNSt7__cxx1112basic_stringIcSt11char_traitsIcESaIcEEEmEEvPT_
FN:94,97,_ZSt12construct_atIN7testing12TestPropertyEJS1_EEDTgsnwcvPvLi0E_T_pispcl7declvalIT0_EEEEPS3_DpOS4_
FN:94,97,_ZSt12construct_atIN7testing14TestPartResultEJS1_EEDTgsnwcvPvLi0E_T_pispcl7declvalIT0_EEEEPS3_DpOS4_
FN:94,97,_ZSt12construct_atIN7testing8internal9TraceInfoEJS2_EEDTgsnwcvPvLi0E_T_pispcl7declvalIT0_EEEEPS4_DpOS5_
FN:94,97,_ZSt12construct_atISt4pairIKNSt7__cxx1112basic_stringIcSt11char_traitsIcESaIcEEEN7testing8internal34TypeParameterizedTestSuiteRegistry30TypeParameterizedTestSuiteInfoEEJS6_SB_EEDTgsnwcvPvLi0E_T_pispcl7declvalIT0_EEEEPSE_DpOSF_
FN:94,97,_ZSt12construct_atISt4pairIKNSt7__cxx1112basic_stringIcSt11char_traitsIcESaIcEEEPN7testing9TestSuiteEEJRS7_RKSA_EEDTgsnwcvPvLi0E_T_pispcl7declvalIT0_EEEEPSG_DpOSH_
FN:94,97,_ZSt12construct_atISt4pairIKNSt7__cxx1112basic_stringIcSt11char_traitsIcESaIcEEES6_EJRKSt21piecewise_construct_tSt5tupleIJRS7_EESC_IJEEEEDTgsnwcvPvLi0E_T_pispcl7declvalIT0_EEEEPSH_DpOSI_
FN:94,97,_ZSt12construct_atISt4pairIKNSt7__cxx1112basic_stringIcSt11char_traitsIcESaIcEEESt14_List_iteratorIS6_EEJRKSt21piecewise_construct_tSt5tupleIJRS7_EESE_IJEEEEDTgsnwcvPvLi0E_T_pispcl7declvalIT0_EEEEPSJ_DpOSK_
FN:94,97,_ZSt12construct_atISt4pairIKNSt7__cxx1112basic_stringIcSt11char_traitsIcESaIcEEEmEJRKSt21piecewise_construct_tSt5tupleIJRS7_EESC_IJEEEEDTgsnwcvPvLi0E_T_pispcl7declvalIT0_EEEEPSH_DpOSI_
FN:94,97,_ZSt12construct_atISt4pairIKiNSt7__cxx1112basic_stringIcSt11char_traitsIcESaIcEEEEJRKSt21piecewise_construct_tSt5tupleIJRS1_EESC_IJEEEEDTgsnwcvPvLi0E_T_pispcl7declvalIT0_EEEEPSH_DpOSI_
FN:94,97,_ZSt12construct_atISt4pairIKiSt14_List_iteratorIiEEJRKSt21piecewise_construct_tSt5tupleIJRS1_EES8_IJEEEEDTgsnwcvPvLi0E_T_pispcl7declvalIT0_EEEEPSD_DpOSE_
FN:94,97,_ZSt12construct_atISt4pairIKiiEJRKSt21piecewise_construct_tSt5tupleIJRS1_EES6_IJEEEEDTgsnwcvPvLi0E_T_pispcl7declvalIT0_EEEEPSB_DpOSC_
FN:94,97,_ZSt12construct_atISt6threadJRZN36storage_test_test_thread_access_Test8TestBodyEvEUliiE_RiRKiEEDTgsnwcvPvLi0E_T_pispcl7declvalIT0_EEEEPS8_DpOS9_
FN:94,97,_ZSt12construct_atISt6threadJS0_EEDTgsnwcvPvLi0E_T_pispcl7declvalIT0_EEEEPS2_DpOS3_
FNDA:0,_ZNSt12_Destroy_auxILb0EE9__destroyIPSt6vectorIN7testing8internal13edit_distance8EditTypeESaIS6_EEEEvT_SA_
FNDA:0,_ZNSt12_Destroy_auxILb0EE9__destroyIPSt6vectorIdSaIdEEEEvT_S6_
FNDA:11,_ZSt8_DestroyIPN7testing12TestPropertyEEvT_S3_
FNDA:11,_ZSt8_DestroyIPN7testing14TestPartResultEEvT_S3_
FNDA:25,_ZSt8_DestroyIPNSt7__cxx1112basic_stringIcSt11char_traitsIcESaIcEEEEvT_S7_
FNDA:1,_ZSt8_DestroyIPPN7testing11EnvironmentEEvT_S4_
FNDA:1,_ZSt8_DestroyIPPN7testing17TestEventListenerEEvT_S4_
FNDA:1,_ZSt8_DestroyIPPN7testing8TestInfoEEvT_S4_
FNDA:1,_ZSt8_DestroyIPPN7testing9TestSuiteEEvT_S4_
FNDA:0,_ZSt8_DestroyIPPcEvT_S2_
FNDA:1,_ZSt8_DestroyIPSt6threadEvT_S2_
FNDA:0,_ZSt8_DestroyIPSt6vectorIN7testing8internal13edit_distance8EditTypeESaIS4_EEEvT_S8_
FNDA:0,_ZSt8_DestroyIPSt6vectorIdSaIdEEEvT_S4_
FNDA:2,_ZSt8_DestroyIPiEvT_S1_
FNDA:0,_ZSt8_DestroyIPmEvT_S1_
FNDA:0,_ZSt10destroy_atIN7testing8internal9TraceInfoEEvPT_
FNDA:0,_ZSt10destroy_atISt4pairIKNSt7__cxx1112basic_stringIcSt11char_traitsIcESaIcEEEN7testing8internal34TypeParameterizedTestSuiteRegistry30TypeParameterizedTestSuiteInfoEEEvPT_
FNDA:0,_ZSt10destroy_atISt4pairIKNSt7__cxx1112basic_stringIcSt11char_traitsIcESaIcEEEmEEvPT_
FNDA:0,_ZSt12construct_atIN7testing12TestPropertyEJS1_EEDTgsnwcvPvLi0E_T_pispcl7declvalIT0_EEEEPS3_DpOS4_
FNDA:0,_ZSt12construct_atIN7testing14TestPartResultEJS1_EEDTgsnwcvPvLi0E_T_pispcl7declvalIT0_EEEEPS3_DpOS4_
FNDA:0,_ZSt12construct_atIN7testing8internal9TraceInfoEJS2_EEDTgsnwcvPvLi0E_T_pispcl7declvalIT0_EEEEPS4_DpOS5_
FNDA:0,_ZSt12construct_atISt4pairIKNSt7__cxx1112basic_stringIcSt11char_traitsIcESaIcEEEN7testing8internal34TypeParameterizedTestSuiteRegistry30TypeParameterizedTestSuiteInfoEEJS6_SB_EEDTgsnwcvPvLi0E_T_pispcl7declvalIT0_EEEEPSE_DpOSF_
FNDA:1,_ZSt12construct_atISt4pairIKNSt7__cxx1112basic_stringIcSt11char_traitsIcESaIcEEEPN7testing9TestSuiteEEJRS7_RKSA_EEDTgsnwcvPvLi0E_T_pispcl7declvalIT0_EEEEPSG_DpOSH_
FNDA:8,_ZSt12construct_atISt4pairIKNSt7__cxx1112basic_stringIcSt11char_traitsIcESaIcEEES6_EJRKSt21piecewise_construct_tSt5tupleIJRS7_EESC_IJEEEEDTgsnwcvPvLi0E_T_pispcl7declvalIT0_EEEEPSH_DpOSI_
FNDA:4,_ZSt12construct_atISt4pairIKNSt7__cxx1112basic_stringIcSt11char_traitsIcESaIcEEESt14_List_iteratorIS6_EEJRKSt21piecewise_construct_tSt5tupleIJRS7_EESE_IJEEEEDTgsnwcvPvLi0E_T_pispcl7declvalIT0_EEEEPSJ_DpOSK_
FNDA:0,_ZSt12construct_atISt4pairIKNSt7__cxx1112basic_stringIcSt11char_traitsIcESaIcEEEmEJRKSt21piecewise_construct_tSt5tupleIJRS7_EESC_IJEEEEDTgsnwcvPvLi0E_T_pispcl7declvalIT0_EEEEPSH_DpOSI_
FNDA:7562,_ZSt12construct_atISt4pairIKiNSt7__cxx1112basic_stringIcSt11char_traitsIcESaIcEEEEJRKSt21piecewise_construct_tSt5tupleIJRS1_EESC_IJEEEEDTgsnwcvPvLi0E_T_pispcl7declvalIT0_EEEEPSH_DpOSI_
FNDA:6500,_ZSt12construct_atISt4pairIKiSt14_List_iteratorIiEEJRKSt21piecewise_construct_tSt5tupleIJRS1_EES8_IJEEEEDTgsnwcvPvLi0E_T_pispcl7declvalIT0_EEEEPSD_DpOSE_
FNDA:54,_ZSt12construct_atISt4pairIKiiEJRKSt21piecewise_construct_tSt5tupleIJRS1_EES6_IJEEEEDTgsnwcvPvLi0E_T_pispcl7declvalIT0_EEEEPSB_DpOSC_
FNDA:10,_ZSt12construct_atISt6threadJRZN36storage_test_test_thread_access_Test8TestBodyEvEUliiE_RiRKiEEDTgsnwcvPvLi0E_T_pispcl7declvalIT0_EEEEPS8_DpOS9_
FNDA:15,_ZSt12construct_atISt6threadJS0_EEDTgsnwcvPvLi0E_T_pispcl7declvalIT0_EEEEPS2_DpOS3_
FNF:31
FNH:17
DA:80,7593
DA:88,0
DA:89,0
DA:94,20658
DA:97,20706
DA:109,0
DA:119,1
DA:146,26
DA:149,10
DA:160,1
DA:162,74
DA:163,10
DA:164,0
DA:182,54
DA:196,48
LF:15
LH:11
end_of_record
TN:
SF:/usr/include/c++/13/bits/stl_function.h
FN:499,502,_ZNKSt8equal_toIvEclIRKSt17basic_string_viewIcSt11char_traitsIcEERKNSt7__cxx1112basic_stringIcS4_SaIcEEEEEDTeqcl7forwardIT_Efp_Ecl7forwardIT0_Efp0_EEOSE_OSF_
FNDA:0,_ZNKSt8equal_toIvEclIRKSt17basic_string_viewIcSt11char_traitsIcEERKNSt7__cxx1112basic_stringIcS4_SaIcEEEEEDTeqcl7forwardIT_Efp_Ecl7forwardIT0_Efp0_EEOSE_OSF_
FNF:1
FNH:0
DA:377,0
DA:378,98345
DA:407,0
DA:408,0
DA:451,0
DA:457,63
DA:499,0
DA:502,0
DA:589,0
DA:593,0
DA:607,0
DA:608,0
DA:1182,0
DA:1183,0
LF:14
LH:2
end_of_record
TN:
SF:/usr/include/c++/13/bits/stl_iterator.h
FN:975,980,_ZNSt15insert_iteratorISt13unordered_setINSt7__cxx1112basic_stringIcSt11char_traitsIcESaIcEEESt4hashIS6_ESt8equal_toIS6_ESaIS6_EEEaSEOS6_
FN:975,980,_ZNSt15insert_iteratorISt6vectorINSt7__cxx1112basic_stringIcSt11char_traitsIcESaIcEEESaIS6_EEEaSEOS6_
FNDA:0,_ZNSt15insert_iteratorISt13unordered_setINSt7__cxx1112basic_stringIcSt11char_traitsIcESaIcEEESt4hashIS6_ESt8equal_toIS6_ESaIS6_EEEaSEOS6_
FNDA:6,_ZNSt15insert_iteratorISt6vectorINSt7__cxx1112basic_stringIcSt11char_traitsIcESaIcEEESaIS6_EEEaSEOS6_
FNF:2
FNH:1
DA:195,1
DA:266,8
DA:267,8
DA:296,0
DA:298,0
DA:299,0
DA:596,1
DA:929,8
DA:975,6
DA:977,12
DA:978,6
DA:979,6
DA:1020,8
DA:1021,4
DA:1072,0
DA:1076,158
DA:1077,274
DA:1083,0
DA:1094,0
DA:1099,7
DA:1100,18
DA:1109,10
DA:1111,74
DA:1112,10
DA:1117,69
DA:1118,69
DA:1123,0
DA:1125,17
DA:1126,0
DA:1142,0
DA:1143,0
DA:1147,0
DA:1148,3
DA:1157,10
DA:1158,10
DA:1162,7
DA:1163,0
DA:1197,1
DA:1203,42
DA:1211,0
DA:1321,0
DA:1329,1
DA:1334,5
DA:1337,130
LF:44
LH:30
end_of_record
TN:
SF:/usr/include/c++/13/bits/stl_iterator_base_funcs.h
FN:184,196,_ZSt9__advanceIN9__gnu_cxx17__normal_iteratorIPcNSt7__cxx1112basic_stringIcSt11char_traitsIcESaIcEEEEElEvRT_T0_St26random_access_iterator_tag
FNDA:5,_ZSt9__advanceIN9__gnu_cxx17__normal_iteratorIPcNSt7__cxx1112basic_stringIcSt11char_traitsIcESaIcEEEEElEvRT_T0_St26random_access_iterator_tag
FNF:1
FNH:1
DA:100,11048
DA:106,11048
DA:148,11052
DA:151,11088
DA:184,0
DA:190,5
DA:191,0
DA:192,5
DA:193,0
DA:195,0
DA:196,5
DA:220,0
DA:223,0
DA:224,0
DA:244,5
DA:250,5
DA:251,5
LF:17
LH:10
end_of_record
TN:
SF:/usr/include/c++/13/bits/stl_list.h
FN:1647,1675,_ZNSt7__cxx114listINS_12basic_stringIcSt11char_traitsIcESaIcEEESaIS5_EE6spliceESt20_List_const_iteratorIS5_EOS7_S9_
FN:1647,1675,_ZNSt7__cxx114listIiSaIiEE6spliceESt20_List_const_iteratorIiEOS2_S4_
FN:2003,2008,_ZNSt7__cxx114listINS_12basic_stringIcSt11char_traitsIcESaIcEEESaIS5_EE9_M_insertIJRKS5_EEEvSt14_List_iteratorIS5_EDpOT_
FN:2003,2008,_ZNSt7__cxx114listISt4pairIcPKcESaIS4_EE9_M_insertIJS4_EEEvSt14_List_iteratorIS4_EDpOT_
FN:2003,2008,_ZNSt7__cxx114listIiSaIiEE9_M_insertIJRKiEEEvSt14_List_iteratorIiEDpOT_
FN:2013,2025,_ZNSt7__cxx114listINS_12basic_stringIcSt11char_traitsIcESaIcEEESaIS5_EE8_M_eraseESt14_List_iteratorIS5_E
FN:2013,2025,_ZNSt7__cxx114listIiSaIiEE8_M_eraseESt14_List_iteratorIiE
FN:708,717,_ZNSt7__cxx114listINS_12basic_stringIcSt11char_traitsIcESaIcEEESaIS5_EE14_M_create_nodeIJRKS5_EEEPSt10_List_nodeIS5_EDpOT_
FNDA:5,_ZNSt7__cxx114listINS_12basic_stringIcSt11char_traitsIcESaIcEEESaIS5_EE6spliceESt20_List_const_iteratorIS5_EOS7_S9_
FNDA:14619,_ZNSt7__cxx114listIiSaIiEE6spliceESt20_List_const_iteratorIiEOS2_S4_
FNDA:4,_ZNSt7__cxx114listINS_12basic_stringIcSt11char_traitsIcESaIcEEESaIS5_EE9_M_insertIJRKS5_EEEvSt14_List_iteratorIS5_EDpOT_
FNDA:0,_ZNSt7__cxx114listISt4pairIcPKcESaIS4_EE9_M_insertIJS4_EEEvSt14_List_iteratorIS4_EDpOT_
FNDA:6500,_ZNSt7__cxx114listIiSaIiEE9_M_insertIJRKiEEEvSt14_List_iteratorIiEDpOT_
FNDA:1,_ZNSt7__cxx114listINS_12basic_stringIcSt11char_traitsIcESaIcEEESaIS5_EE8_M_eraseESt14_List_iteratorIS5_E
FNDA:5530,_ZNSt7__cxx114listIiSaIiEE8_M_eraseESt14_List_iteratorIiE
FNDA:4,_ZNSt7__cxx114listINS_12basic_stringIcSt11char_traitsIcESaIcEEESaIS5_EE14_M_create_nodeIJRKS5_EEEPSt10_List_nodeIS5_EDpOT_
FNF:8
FNH:7
DA:110,964
DA:111,964
DA:150,964
DA:152,964
DA:154,964
DA:238,0
DA:239,0
DA:264,6504
DA:265,6504
DA:268,0
DA:269,5531
DA:278,0
DA:279,15889
DA:287,24027
DA:289,9403
DA:302,5531
DA:304,5531
DA:358,0
DA:359,0
DA:362,19629
DA:363,19629
DA:374,0
DA:377,0
DA:379,0
DA:380,0
DA:408,14624
DA:450,956
DA:455,9
DA:457,9
DA:471,955
DA:472,955
DA:480,7459
DA:482,0
DA:484,11509
DA:486,10536
DA:517,6504
DA:518,13008
DA:521,6488
DA:522,957
DA:529,957
DA:533,5960
DA:536,9
DA:564,955
DA:565,955
DA:574,956
DA:575,956
DA:708,6504
DA:710,4
DA:711,6504
DA:712,6504
DA:713,6504
DA:715,4
DA:716,6504
DA:717,4
DA:727,7459
DA:728,7459
DA:749,9
DA:759,955
DA:760,955
DA:903,1911
DA:1012,955
DA:1013,955
DA:1022,0
DA:1023,7459
DA:1042,6486
DA:1043,6486
DA:1143,0
DA:1144,0
DA:1149,7459
DA:1150,7459
DA:1255,6504
DA:1256,6504
DA:1310,0
DA:1311,0
DA:1340,5531
DA:1341,5531
DA:1612,0
DA:1617,0
DA:1619,0
DA:1621,0
DA:1624,0
DA:1625,0
DA:1631,0
DA:1632,0
DA:1647,14624
DA:1662,14624
DA:1663,14624
DA:1664,14624
DA:1665,9619
DA:1670,10010
DA:1673,5005
DA:1674,5005
DA:1689,0
DA:1690,0
DA:1988,5005
DA:1989,5005
DA:2003,6504
DA:2005,6504
DA:2006,6504
DA:2007,6504
DA:2008,6504
DA:2013,5531
DA:2015,5531
DA:2016,5531
DA:2017,5531
DA:2019,5531
DA:2024,5531
DA:2025,5531
DA:2031,5005
LF:109
LH:83
end_of_record
TN:
SF:/usr/include/c++/13/bits/stl_map.h
FN:504,520,_ZNSt3mapINSt7__cxx1112basic_stringIcSt11char_traitsIcESaIcEEEmSt4lessIS5_ESaISt4pairIKS5_mEEEixERS9_
FN:588,609,_ZNSt3mapINSt7__cxx1112basic_stringIcSt11char_traitsIcESaIcEEEN7testing8internal34TypeParameterizedTestSuiteRegistry30TypeParameterizedTestSuiteInfoESt4lessIS5_ESaISt4pairIKS5_S9_EEE7emplaceIJS5_S9_EEESC_ISt17_Rb_tree_iteratorISE_EbEDpOT_
FNDA:0,_ZNSt3mapINSt7__cxx1112basic_stringIcSt11char_traitsIcESaIcEEEmSt4lessIS5_ESaISt4pairIKS5_mEEEixERS9_
FNDA:0,_ZNSt3mapINSt7__cxx1112basic_stringIcSt11char_traitsIcESaIcEEEN7testing8internal34TypeParameterizedTestSuiteRegistry30TypeParameterizedTestSuiteInfoESt4lessIS5_ESaISt4pairIKS5_S9_EEE7emplaceIJS5_S9_EEESC_ISt17_Rb_tree_iteratorISE_EbEDpOT_
FNF:2
FNH:0
DA:197,1
DA:314,1
DA:368,0
DA:369,0
DA:386,0
DA:387,1
DA:482,0
DA:483,0
DA:504,0
DA:509,0
DA:511,0
DA:513,0
DA:514,0
DA:515,0
DA:519,0
DA:588,0
DA:594,0
DA:597,0
DA:598,0
DA:599,0
DA:601,0
DA:602,0
DA:604,0
DA:638,0
DA:640,0
DA:1193,0
DA:1219,0
DA:1220,0
DA:1265,0
DA:1266,0
DA:1308,0
DA:1309,0
LF:32
LH:3
end_of_record
TN:
SF:/usr/include/c++/13/bits/stl_pair.h
FN:197,197,_ZNSt4pairIKNSt7__cxx1112basic_stringIcSt11char_traitsIcESaIcEEEN7testing8internal34TypeParameterizedTestSuiteRegistry30TypeParameterizedTestSuiteInfoEEC2ERKSB_
FNDA:0,_ZNSt4pairIKNSt7__cxx1112basic_stringIcSt11char_traitsIcESaIcEEEN7testing8internal34TypeParameterizedTestSuiteRegistry30TypeParameterizedTestSuiteInfoEEC2ERKSB_
FNF:1
FNH:0
DA:187,0
DA:197,0
DA:305,0
DA:308,1
DA:315,0
DA:317,0
DA:922,0
DA:927,0
DA:1041,0
LF:9
LH:1
end_of_record
TN:
SF:/usr/include/c++/13/bits/stl_set.h
FNF:0
FNH:0
DA:169,1
DA:283,1
DA:355,0
DA:356,0
DA:511,0
DA:514,0
DA:515,0
DA:520,0
DA:523,0
DA:524,0
DA:750,0
DA:751,0
DA:800,0
DA:801,0
LF:14
LH:2
end_of_record
TN:
SF:/usr/include/c++/13/bits/stl_tempbuf.h
FN:104,120,_ZSt20get_temporary_bufferIPN7testing8TestInfoEESt4pairIPT_lEl
FNDA:1,_ZSt20get_temporary_bufferIPN7testing8TestInfoEESt4pairIPT_lEl
FNF:1
FNH:1
DA:73,1
DA:77,1
DA:104,1
DA:106,1
DA:108,1
DA:111,1
DA:113,1
DA:115,1
DA:116,1
DA:117,0
DA:119,0
DA:183,1
DA:185,1
DA:186,1
DA:249,1
DA:263,1
DA:265,1
DA:268,1
DA:270,1
DA:274,1
DA:276,1
DA:277,1
LF:22
LH:20
end_of_record
TN:
SF:/usr/include/c++/13/bits/stl_tree.h
FN:1270,1271,_ZNSt8_Rb_treeINSt7__cxx1112basic_stringIcSt11char_traitsIcESaIcEEESt4pairIKS5_N7testing8internal34TypeParameterizedTestSuiteRegistry30TypeParameterizedTestSuiteInfoEESt10_Select1stISC_ESt4lessIS5_ESaISC_EE11lower_boundERS7_
FN:1270,1271,_ZNSt8_Rb_treeINSt7__cxx1112basic_stringIcSt11char_traitsIcESaIcEEESt4pairIKS5_mESt10_Select1stIS8_ESt4lessIS5_ESaIS8_EE11lower_boundERS7_
FN:1640,1644,_ZNSt8_Rb_treeINSt7__cxx1112basic_stringIcSt11char_traitsIcESaIcEEESt4pairIKS5_N7testing8internal34TypeParameterizedTestSuiteRegistry30TypeParameterizedTestSuiteInfoEESt10_Select1stISC_ESt4lessIS5_ESaISC_EE10_Auto_nodeD2Ev
FN:1640,1644,_ZNSt8_Rb_treeINSt7__cxx1112basic_stringIcSt11char_traitsIcESaIcEEESt4pairIKS5_mESt10_Select1stIS8_ESt4lessIS5_ESaIS8_EE10_Auto_nodeD2Ev
FN:1818,1837,_ZNSt8_Rb_treeINSt7__cxx1112basic_stringIcSt11char_traitsIcESaIcEEES5_St9_IdentityIS5_ESt4lessIS5_ESaIS5_EE10_M_insert_IRKS5_NSB_11_Alloc_nodeEEESt17_Rb_tree_iteratorIS5_EPSt18_Rb_tree_node_baseSJ_OT_RT0_
FN:1818,1837,_ZNSt8_Rb_treeINSt7__cxx1112basic_stringIcSt11char_traitsIcESaIcEEES5_St9_IdentityIS5_ESt4lessIS5_ESaIS5_EE10_M_insert_IS5_NSB_11_Alloc_nodeEEESt17_Rb_tree_iteratorIS5_EPSt18_Rb_tree_node_baseSH_OT_RT0_
FN:1930,1941,_ZNSt8_Rb_treeINSt7__cxx1112basic_stringIcSt11char_traitsIcESaIcEEES5_St9_IdentityIS5_ESt4lessIS5_ESaIS5_EE8_M_eraseEPSt13_Rb_tree_nodeIS5_E
FN:1930,1941,_ZNSt8_Rb_treeINSt7__cxx1112basic_stringIcSt11char_traitsIcESaIcEEESt4pairIKS5_N7testing8internal34TypeParameterizedTestSuiteRegistry30TypeParameterizedTestSuiteInfoEESt10_Select1stISC_ESt4lessIS5_ESaISC_EE8_M_eraseEPSt13_Rb_tree_nodeISC_E
FN:1930,1941,_ZNSt8_Rb_treeINSt7__cxx1112basic_stringIcSt11char_traitsIcESaIcEEESt4pairIKS5_mESt10_Select1stIS8_ESt4lessIS5_ESaIS8_EE8_M_eraseEPSt13_Rb_tree_nodeIS8_E
FN:2108,2132,_ZNSt8_Rb_treeINSt7__cxx1112basic_stringIcSt11char_traitsIcESaIcEEES5_St9_IdentityIS5_ESt4lessIS5_ESaIS5_EE24_M_get_insert_unique_posERKS5_
FN:2108,2132,_ZNSt8_Rb_treeINSt7__cxx1112basic_stringIcSt11char_traitsIcESaIcEEESt4pairIKS5_N7testing8internal34TypeParameterizedTestSuiteRegistry30TypeParameterizedTestSuiteInfoEESt10_Select1stISC_ESt4lessIS5_ESaISC_EE24_M_get_insert_unique_posERS7_
FN:2108,2132,_ZNSt8_Rb_treeINSt7__cxx1112basic_stringIcSt11char_traitsIcESaIcEEESt4pairIKS5_mESt10_Select1stIS8_ESt4lessIS5_ESaIS8_EE24_M_get_insert_unique_posERS7_
FN:2162,2182,_ZNSt8_Rb_treeINSt7__cxx1112basic_stringIcSt11char_traitsIcESaIcEEES5_St9_IdentityIS5_ESt4lessIS5_ESaIS5_EE16_M_insert_uniqueIRKS5_EESt4pairISt17_Rb_tree_iteratorIS5_EbEOT_
FN:2162,2182,_ZNSt8_Rb_treeINSt7__cxx1112basic_stringIcSt11char_traitsIcESaIcEEES5_St9_IdentityIS5_ESt4lessIS5_ESaIS5_EE16_M_insert_uniqueIS5_EESt4pairISt17_Rb_tree_iteratorIS5_EbEOT_
FN:2210,2261,_ZNSt8_Rb_treeINSt7__cxx1112basic_stringIcSt11char_traitsIcESaIcEEESt4pairIKS5_N7testing8internal34TypeParameterizedTestSuiteRegistry30TypeParameterizedTestSuiteInfoEESt10_Select1stISC_ESt4lessIS5_ESaISC_EE29_M_get_insert_hint_unique_posESt23_Rb_tree_const_iteratorISC_ERS7_
FN:2210,2261,_ZNSt8_Rb_treeINSt7__cxx1112basic_stringIcSt11char_traitsIcESaIcEEESt4pairIKS5_mESt10_Select1stIS8_ESt4lessIS5_ESaIS8_EE29_M_get_insert_hint_unique_posESt23_Rb_tree_const_iteratorIS8_ERS7_
FN:2377,2389,_ZNSt8_Rb_treeINSt7__cxx1112basic_stringIcSt11char_traitsIcESaIcEEESt4pairIKS5_N7testing8internal34TypeParameterizedTestSuiteRegistry30TypeParameterizedTestSuiteInfoEESt10_Select1stISC_ESt4lessIS5_ESaISC_EE14_M_insert_nodeEPSt18_Rb_tree_node_baseSK_PSt13_Rb_tree_nodeISC_E
FN:2377,2389,_ZNSt8_Rb_treeINSt7__cxx1112basic_stringIcSt11char_traitsIcESaIcEEESt4pairIKS5_mESt10_Select1stIS8_ESt4lessIS5_ESaIS8_EE14_M_insert_nodeEPSt18_Rb_tree_node_baseSG_PSt13_Rb_tree_nodeIS8_E
FN:2458,2467,_ZNSt8_Rb_treeINSt7__cxx1112basic_stringIcSt11char_traitsIcESaIcEEESt4pairIKS5_N7testing8internal34TypeParameterizedTestSuiteRegistry30TypeParameterizedTestSuiteInfoEESt10_Select1stISC_ESt4lessIS5_ESaISC_EE22_M_emplace_hint_uniqueIJS5_SB_EEESt17_Rb_tree_iteratorISC_ESt23_Rb_tree_const_iteratorISC_EDpOT_
FN:2458,2467,_ZNSt8_Rb_treeINSt7__cxx1112basic_stringIcSt11char_traitsIcESaIcEEESt4pairIKS5_mESt10_Select1stIS8_ESt4lessIS5_ESaIS8_EE22_M_emplace_hint_uniqueIJRKSt21piecewise_construct_tSt5tupleIJRS7_EESJ_IJEEEEESt17_Rb_tree_iteratorIS8_ESt23_Rb_tree_const_iteratorIS8_EDpOT_
FN:2529,2536,_ZNSt8_Rb_treeINSt7__cxx1112basic_stringIcSt11char_traitsIcESaIcEEESt4pairIKS5_N7testing8internal34TypeParameterizedTestSuiteRegistry30TypeParameterizedTestSuiteInfoEESt10_Select1stISC_ESt4lessIS5_ESaISC_EE4findERS7_
FN:2529,2536,_ZNSt8_Rb_treeINSt7__cxx1112basic_stringIcSt11char_traitsIcESaIcEEESt4pairIKS5_mESt10_Select1stIS8_ESt4lessIS5_ESaIS8_EE4findERS7_
FN:2542,2549,_ZNKSt8_Rb_treeINSt7__cxx1112basic_stringIcSt11char_traitsIcESaIcEEES5_St9_IdentityIS5_ESt4lessIS5_ESaIS5_EE4findERKS5_
FN:2542,2549,_ZNKSt8_Rb_treeINSt7__cxx1112basic_stringIcSt11char_traitsIcESaIcEEESt4pairIKS5_N7testing8internal12CodeLocationEESt10_Select1stISB_ESt4lessIvESaISB_EE4findERS7_
FN:592,607,_ZNSt8_Rb_treeINSt7__cxx1112basic_stringIcSt11char_traitsIcESaIcEEES5_St9_IdentityIS5_ESt4lessIS5_ESaIS5_EE17_M_construct_nodeIJRKS5_EEEvPSt13_Rb_tree_nodeIS5_EDpOT_
FN:592,607,_ZNSt8_Rb_treeINSt7__cxx1112basic_stringIcSt11char_traitsIcESaIcEEESt4pairIKS5_mESt10_Select1stIS8_ESt4lessIS5_ESaIS8_EE17_M_construct_nodeIJRKSt21piecewise_construct_tSt5tupleIJRS7_EESJ_IJEEEEEvPSt13_Rb_tree_nodeIS8_EDpOT_
FN:611,616,_ZNSt8_Rb_treeINSt7__cxx1112basic_stringIcSt11char_traitsIcESaIcEEES5_St9_IdentityIS5_ESt4lessIS5_ESaIS5_EE14_M_create_nodeIJRKS5_EEEPSt13_Rb_tree_nodeIS5_EDpOT_
FN:611,616,_ZNSt8_Rb_treeINSt7__cxx1112basic_stringIcSt11char_traitsIcESaIcEEES5_St9_IdentityIS5_ESt4lessIS5_ESaIS5_EE14_M_create_nodeIJS5_EEEPSt13_Rb_tree_nodeIS5_EDpOT_
FN:611,616,_ZNSt8_Rb_treeINSt7__cxx1112basic_stringIcSt11char_traitsIcESaIcEEESt4pairIKS5_N7testing8internal34TypeParameterizedTestSuiteRegistry30TypeParameterizedTestSuiteInfoEESt10_Select1stISC_ESt4lessIS5_ESaISC_EE14_M_create_nodeIJS5_SB_EEEPSt13_Rb_tree_nodeISC_EDpOT_
FN:611,616,_ZNSt8_Rb_treeINSt7__cxx1112basic_stringIcSt11char_traitsIcESaIcEEESt4pairIKS5_mESt10_Select1stIS8_ESt4lessIS5_ESaIS8_EE14_M_create_nodeIJRKSt21piecewise_construct_tSt5tupleIJRS7_EESJ_IJEEEEEPSt13_Rb_tree_nodeIS8_EDpOT_
FNDA:0,_ZNSt8_Rb_treeINSt7__cxx1112basic_stringIcSt11char_traitsIcESaIcEEESt4pairIKS5_N7testing8internal34TypeParameterizedTestSuiteRegistry30TypeParameterizedTestSuiteInfoEESt10_Select1stISC_ESt4lessIS5_ESaISC_EE11lower_boundERS7_
FNDA:0,_ZNSt8_Rb_treeINSt7__cxx1112basic_stringIcSt11char_traitsIcESaIcEEESt4pairIKS5_mESt10_Select1stIS8_ESt4lessIS5_ESaIS8_EE11lower_boundERS7_
FNDA:0,_ZNSt8_Rb_treeINSt7__cxx1112basic_stringIcSt11char_traitsIcESaIcEEESt4pairIKS5_N7testing8internal34TypeParameterizedTestSuiteRegistry30TypeParameterizedTestSuiteInfoEESt10_Select1stISC_ESt4lessIS5_ESaISC_EE10_Auto_nodeD2Ev
FNDA:0,_ZNSt8_Rb_treeINSt7__cxx1112basic_stringIcSt11char_traitsIcESaIcEEESt4pairIKS5_mESt10_Select1stIS8_ESt4lessIS5_ESaIS8_EE10_Auto_nodeD2Ev
FNDA:0,_ZNSt8_Rb_treeINSt7__cxx1112basic_stringIcSt11char_traitsIcESaIcEEES5_St9_IdentityIS5_ESt4lessIS5_ESaIS5_EE10_M_insert_IRKS5_NSB_11_Alloc_nodeEEESt17_Rb_tree_iteratorIS5_EPSt18_Rb_tree_node_baseSJ_OT_RT0_
FNDA:0,_ZNSt8_Rb_treeINSt7__cxx1112basic_stringIcSt11char_traitsIcESaIcEEES5_St9_IdentityIS5_ESt4lessIS5_ESaIS5_EE10_M_insert_IS5_NSB_11_Alloc_nodeEEESt17_Rb_tree_iteratorIS5_EPSt18_Rb_tree_node_baseSH_OT_RT0_
FNDA:1,_ZNSt8_Rb_treeINSt7__cxx1112basic_stringIcSt11char_traitsIcESaIcEEES5_St9_IdentityIS5_ESt4lessIS5_ESaIS5_EE8_M_eraseEPSt13_Rb_tree_nodeIS5_E
FNDA:1,_ZNSt8_Rb_treeINSt7__cxx1112basic_stringIcSt11char_traitsIcESaIcEEESt4pairIKS5_N7testing8internal34TypeParameterizedTestSuiteRegistry30TypeParameterizedTestSuiteInfoEESt10_Select1stISC_ESt4lessIS5_ESaISC_EE8_M_eraseEPSt13_Rb_tree_nodeISC_E
FNDA:0,_ZNSt8_Rb_treeINSt7__cxx1112basic_stringIcSt11char_traitsIcESaIcEEESt4pairIKS5_mESt10_Select1stIS8_ESt4lessIS5_ESaIS8_EE8_M_eraseEPSt13_Rb_tree_nodeIS8_E
FNDA:0,_ZNSt8_Rb_treeINSt7__cxx1112basic_stringIcSt11char_traitsIcESaIcEEES5_St9_IdentityIS5_ESt4lessIS5_ESaIS5_EE24_M_get_insert_unique_posERKS5_
FNDA:0,_ZNSt8_Rb_treeINSt7__cxx1112basic_stringIcSt11char_traitsIcESaIcEEESt4pairIKS5_N7testing8internal34TypeParameterizedTestSuiteRegistry30TypeParameterizedTestSuiteInfoEESt10_Select1stISC_ESt4lessIS5_ESaISC_EE24_M_get_insert_unique_posERS7_
FNDA:0,_ZNSt8_Rb_treeINSt7__cxx1112basic_stringIcSt11char_traitsIcESaIcEEESt4pairIKS5_mESt10_Select1stIS8_ESt4lessIS5_ESaIS8_EE24_M_get_insert_unique_posERS7_
FNDA:0,_ZNSt8_Rb_treeINSt7__cxx1112basic_stringIcSt11char_traitsIcESaIcEEES5_St9_IdentityIS5_ESt4lessIS5_ESaIS5_EE16_M_insert_uniqueIRKS5_EESt4pairISt17_Rb_tree_iteratorIS5_EbEOT_
FNDA:0,_ZNSt8_Rb_treeINSt7__cxx1112basic_stringIcSt11char_traitsIcESaIcEEES5_St9_IdentityIS5_ESt4lessIS5_ESaIS5_EE16_M_insert_uniqueIS5_EESt4pairISt17_Rb_tree_iteratorIS5_EbEOT_
FNDA:0,_ZNSt8_Rb_treeINSt7__cxx1112basic_stringIcSt11char_traitsIcESaIcEEESt4pairIKS5_N7testing8internal34TypeParameterizedTestSuiteRegistry30TypeParameterizedTestSuiteInfoEESt10_Select1stISC_ESt4lessIS5_ESaISC_EE29_M_get_insert_hint_unique_posESt23_Rb_tree_const_iteratorISC_ERS7_
FNDA:0,_ZNSt8_Rb_treeINSt7__cxx1112basic_stringIcSt11char_traitsIcESaIcEEESt4pairIKS5_mESt10_Select1stIS8_ESt4lessIS5_ESaIS8_EE29_M_get_insert_hint_unique_posESt23_Rb_tree_const_iteratorIS8_ERS7_
FNDA:0,_ZNSt8_Rb_treeINSt7__cxx1112basic_stringIcSt11char_traitsIcESaIcEEESt4pairIKS5_N7testing8internal34TypeParameterizedTestSuiteRegistry30TypeParameterizedTestSuiteInfoEESt10_Select1stISC_ESt4lessIS5_ESaISC_EE14_M_insert_nodeEPSt18_Rb_tree_node_baseSK_PSt13_Rb_tree_nodeISC_E
FNDA:0,_ZNSt8_Rb_treeINSt7__cxx1112basic_stringIcSt11char_traitsIcESaIcEEESt4pairIKS5_mESt10_Select1stIS8_ESt4lessIS5_ESaIS8_EE14_M_insert_nodeEPSt18_Rb_tree_node_baseSG_PSt13_Rb_tree_nodeIS8_E
FNDA:0,_ZNSt8_Rb_treeINSt7__cxx1112basic_stringIcSt11char_traitsIcESaIcEEESt4pairIKS5_N7testing8internal34TypeParameterizedTestSuiteRegistry30TypeParameterizedTestSuiteInfoEESt10_Select1stISC_ESt4lessIS5_ESaISC_EE22_M_emplace_hint_uniqueIJS5_SB_EEESt17_Rb_tree_iteratorISC_ESt23_Rb_tree_const_iteratorISC_EDpOT_
FNDA:0,_ZNSt8_Rb_treeINSt7__cxx1112basic_stringIcSt11char_traitsIcESaIcEEESt4pairIKS5_mESt10_Select1stIS8_ESt4lessIS5_ESaIS8_EE22_M_emplace_hint_uniqueIJRKSt21piecewise_construct_tSt5tupleIJRS7_EESJ_IJEEEEESt17_Rb_tree_iteratorIS8_ESt23_Rb_tree_const_iteratorIS8_EDpOT_
FNDA:0,_ZNSt8_Rb_treeINSt7__cxx1112basic_stringIcSt11char_traitsIcESaIcEEESt4pairIKS5_N7testing8internal34TypeParameterizedTestSuiteRegistry30TypeParameterizedTestSuiteInfoEESt10_Select1stISC_ESt4lessIS5_ESaISC_EE4findERS7_
FNDA:0,_ZNSt8_Rb_treeINSt7__cxx1112basic_stringIcSt11char_traitsIcESaIcEEESt4pairIKS5_mESt10_Select1stIS8_ESt4lessIS5_ESaIS8_EE4findERS7_
FNDA:0,_ZNKSt8_Rb_treeINSt7__cxx1112basic_stringIcSt11char_traitsIcESaIcEEES5_St9_IdentityIS5_ESt4lessIS5_ESaIS5_EE4findERKS5_
FNDA:0,_ZNKSt8_Rb_treeINSt7__cxx1112basic_stringIcSt11char_traitsIcESaIcEEESt4pairIKS5_N7testing8internal12CodeLocationEESt10_Select1stISB_ESt4lessIvESaISB_EE4findERS7_
FNDA:0,_ZNSt8_Rb_treeINSt7__cxx1112basic_stringIcSt11char_traitsIcESaIcEEES5_St9_IdentityIS5_ESt4lessIS5_ESaIS5_EE17_M_construct_nodeIJRKS5_EEEvPSt13_Rb_tree_nodeIS5_EDpOT_
FNDA:0,_ZNSt8_Rb_treeINSt7__cxx1112basic_stringIcSt11char_traitsIcESaIcEEESt4pairIKS5_mESt10_Select1stIS8_ESt4lessIS5_ESaIS8_EE17_M_construct_nodeIJRKSt21piecewise_construct_tSt5tupleIJRS7_EESJ_IJEEEEEvPSt13_Rb_tree_nodeIS8_EDpOT_
FNDA:0,_ZNSt8_Rb_treeINSt7__cxx1112basic_stringIcSt11char_traitsIcESaIcEEES5_St9_IdentityIS5_ESt4lessIS5_ESaIS5_EE14_M_create_nodeIJRKS5_EEEPSt13_Rb_tree_nodeIS5_EDpOT_
FNDA:0,_ZNSt8_Rb_treeINSt7__cxx1112basic_stringIcSt11char_traitsIcESaIcEEES5_St9_IdentityIS5_ESt4lessIS5_ESaIS5_EE14_M_create_nodeIJS5_EEEPSt13_Rb_tree_nodeIS5_EDpOT_
FNDA:0,_ZNSt8_Rb_treeINSt7__cxx1112basic_stringIcSt11char_traitsIcESaIcEEESt4pairIKS5_N7testing8internal34TypeParameterizedTestSuiteRegistry30TypeParameterizedTestSuiteInfoEESt10_Select1stISC_ESt4lessIS5_ESaISC_EE14_M_create_nodeIJS5_SB_EEEPSt13_Rb_tree_nodeISC_EDpOT_
FNDA:0,_ZNSt8_Rb_treeINSt7__cxx1112basic_stringIcSt11char_traitsIcESaIcEEESt4pairIKS5_mESt10_Select1stIS8_ESt4lessIS5_ESaIS8_EE14_M_create_nodeIJRKSt21piecewise_construct_tSt5tupleIJRS7_EESJ_IJEEEEEPSt13_Rb_tree_nodeIS8_EDpOT_
FNF:30
FNH:2
DA:146,0
DA:173,0
DA:174,0
DA:175,0
DA:176,0
DA:206,0
DA:208,0
DA:209,0
DA:210,0
DA:211,0
DA:234,0
DA:235,0
DA:238,0
DA:239,0
DA:273,0
DA:274,0
DA:277,0
DA:278,0
DA:282,0
DA:285,0
DA:287,0
DA:288,0
DA:300,0
DA:302,0
DA:303,0
DA:315,0
DA:347,0
DA:350,0
DA:351,0
DA:354,0
DA:355,0
DA:363,0
DA:366,0
DA:368,0
DA:369,0
DA:396,0
DA:397,0
DA:525,0
DA:526,0
DA:530,0
DA:531,0
DA:549,0
DA:550,0
DA:562,0
DA:563,0
DA:566,0
DA:567,0
DA:592,0
DA:596,0
DA:597,0
DA:601,0
DA:603,0
DA:604,0
DA:605,0
DA:607,0
DA:611,0
DA:613,0
DA:614,0
DA:615,0
DA:620,0
DA:625,0
DA:626,0
DA:631,0
DA:633,0
DA:634,0
DA:635,0
DA:662,0
DA:669,0
DA:673,0
DA:721,0
DA:729,0
DA:736,0
DA:737,0
DA:740,0
DA:741,0
DA:744,0
DA:747,0
DA:751,0
DA:752,0
DA:755,0
DA:756,0
DA:759,0
DA:777,0
DA:781,0
DA:782,0
DA:785,0
DA:786,0
DA:789,0
DA:790,0
DA:793,0
DA:794,0
DA:797,0
DA:798,0
DA:930,1
DA:985,0
DA:986,1
DA:997,0
DA:998,0
DA:1005,0
DA:1006,1
DA:1009,0
DA:1010,0
DA:1033,0
DA:1034,0
DA:1270,0
DA:1271,0
DA:1635,0
DA:1636,0
DA:1637,0
DA:1640,0
DA:1642,0
DA:1643,0
DA:1644,0
DA:1651,0
DA:1652,0
DA:1655,0
DA:1657,0
DA:1658,0
DA:1659,0
DA:1818,0
DA:1827,0
DA:1828,0
DA:1831,0
DA:1833,0
DA:1834,0
DA:1835,0
DA:1836,0
DA:1930,2
DA:1934,2
DA:1936,0
DA:1937,0
DA:1938,0
DA:1939,0
DA:1941,2
DA:1947,0
DA:1951,0
DA:1952,0
DA:1953,0
DA:1955,0
DA:1956,0
DA:1963,0
DA:1967,0
DA:1968,0
DA:1969,0
DA:1971,0
DA:1972,0
DA:2108,0
DA:2112,0
DA:2113,0
DA:2114,0
DA:2115,0
DA:2117,0
DA:2118,0
DA:2119,0
DA:2121,0
DA:2122,0
DA:2124,0
DA:2125,0
DA:2127,0
DA:2129,0
DA:2130,0
DA:2131,0
DA:2162,0
DA:2171,0
DA:2173,0
DA:2175,0
DA:2176,0
DA:2178,0
DA:2181,0
DA:2210,0
DA:2214,0
DA:2218,0
DA:2220,0
DA:2221,0
DA:2222,0
DA:2224,0
DA:2226,0
DA:2229,0
DA:2230,0
DA:2231,0
DA:2232,0
DA:2234,0
DA:2235,0
DA:2237,0
DA:2240,0
DA:2242,0
DA:2245,0
DA:2246,0
DA:2247,0
DA:2248,0
DA:2250,0
DA:2251,0
DA:2253,0
DA:2256,0
DA:2260,0
DA:2377,0
DA:2381,0
DA:2382,0
DA:2385,0
DA:2386,0
DA:2387,0
DA:2388,0
DA:2458,0
DA:2462,0
DA:2463,0
DA:2464,0
DA:2465,0
DA:2466,0
DA:2467,0
DA:2529,0
DA:2532,0
DA:2533,0
DA:2534,0
DA:2535,0
DA:2542,0
DA:2545,0
DA:2546,0
DA:2547,0
DA:2548,0
LF:219
LH:6
end_of_record
TN:
SF:/usr/include/c++/13/bits/stl_uninitialized.h
FN:1091,1108,_ZSt14__relocate_a_1IPN7testing12TestPropertyES2_SaIS1_EET0_T_S5_S4_RT1_
FN:1091,1108,_ZSt14__relocate_a_1IPSt6threadS1_SaIS0_EET0_T_S4_S3_RT1_
FN:113,128,_ZSt16__do_uninit_copyIN9__gnu_cxx17__normal_iteratorIPKNSt7__cxx1112basic_stringIcSt11char_traitsIcESaIcEEESt6vectorIS7_SaIS7_EEEEPS7_ET0_T_SG_SF_
FN:113,128,_ZSt16__do_uninit_copyIPKPKcPNSt7__cxx1112basic_stringIcSt11char_traitsIcESaIcEEEET0_T_SC_SB_
FN:261,275,_ZSt18__do_uninit_fill_nIPSt6vectorIN7testing8internal13edit_distance8EditTypeESaIS4_EEmS6_ET_S8_T0_RKT1_
FN:261,275,_ZSt18__do_uninit_fill_nIPSt6vectorIdSaIdEEmS2_ET_S4_T0_RKT1_
FNDA:0,_ZSt14__relocate_a_1IPN7testing12TestPropertyES2_SaIS1_EET0_T_S5_S4_RT1_
FNDA:10,_ZSt14__relocate_a_1IPSt6threadS1_SaIS0_EET0_T_S4_S3_RT1_
FNDA:2,_ZSt16__do_uninit_copyIN9__gnu_cxx17__normal_iteratorIPKNSt7__cxx1112basic_stringIcSt11char_traitsIcESaIcEEESt6vectorIS7_SaIS7_EEEEPS7_ET0_T_SG_SF_
FNDA:0,_ZSt16__do_uninit_copyIPKPKcPNSt7__cxx1112basic_stringIcSt11char_traitsIcESaIcEEEET0_T_SC_SB_
FNDA:0,_ZSt18__do_uninit_fill_nIPSt6vectorIN7testing8internal13edit_distance8EditTypeESaIS4_EEmS6_ET_S8_T0_RKT1_
FNDA:0,_ZSt18__do_uninit_fill_nIPSt6vectorIdSaIdEEmS2_ET_S4_T0_RKT1_
FNF:6
FNH:2
DA:113,2
DA:116,2
DA:119,3
DA:120,1
DA:121,2
DA:123,0
DA:125,0
DA:126,0
DA:135,0
DA:137,0
DA:145,0
DA:147,0
DA:163,0
DA:174,0
DA:181,0
DA:185,0
DA:261,0
DA:263,0
DA:266,0
DA:267,0
DA:268,0
DA:270,0
DA:272,0
DA:273,0
DA:282,0
DA:284,0
DA:312,0
DA:319,0
DA:327,0
DA:366,2
DA:373,0
DA:465,0
DA:472,0
DA:660,0
DA:662,0
DA:664,0
DA:666,0
DA:667,0
DA:668,0
DA:696,0
DA:707,0
DA:712,0
DA:777,0
DA:779,0
DA:1069,15
DA:1077,15
DA:1078,15
DA:1091,10
DA:1103,10
DA:1104,49
DA:1105,15
DA:1107,10
DA:1114,0
DA:1118,0
DA:1119,0
DA:1131,0
DA:1133,0
DA:1141,32
DA:1147,61
LF:59
LH:16
end_of_record
TN:
SF:/usr/include/c++/13/bits/stl_vector.h
FN:1155,1162,_ZNKSt6vectorIN7testing12TestPropertyESaIS1_EE14_M_range_checkEm
FN:1155,1162,_ZNKSt6vectorIN7testing14TestPartResultESaIS1_EE14_M_range_checkEm
FN:1281,1293,_ZNSt6vectorIN7testing12TestPropertyESaIS1_EE9push_backERKS1_
FN:1281,1293,_ZNSt6vectorIN7testing14TestPartResultESaIS1_EE9push_backERKS1_
FN:1281,1293,_ZNSt6vectorIN7testing8internal13edit_distance8EditTypeESaIS3_EE9push_backERKS3_
FN:1281,1293,_ZNSt6vectorIN7testing8internal9TraceInfoESaIS2_EE9push_backERKS2_
FN:1281,1293,_ZNSt6vectorINSt7__cxx1112basic_stringIcSt11char_traitsIcESaIcEEESaIS5_EE9push_backERKS5_
FN:1281,1293,_ZNSt6vectorIPN7testing11EnvironmentESaIS2_EE9push_backERKS2_
FN:1281,1293,_ZNSt6vectorIPN7testing17TestEventListenerESaIS2_EE9push_backERKS2_
FN:1281,1293,_ZNSt6vectorIPN7testing8TestInfoESaIS2_EE9push_backERKS2_
FN:1281,1293,_ZNSt6vectorIPN7testing9TestSuiteESaIS2_EE9push_backERKS2_
FN:1687,1698,_ZNSt6vectorINSt7__cxx1112basic_stringIcSt11char_traitsIcESaIcEEESaIS5_EE19_M_range_initializeIN9__gnu_cxx17__normal_iteratorIPKS5_S7_EEEEvT_SE_St20forward_iterator_tag
FN:1687,1698,_ZNSt6vectorINSt7__cxx1112basic_stringIcSt11char_traitsIcESaIcEEESaIS5_EE19_M_range_initializeIPKPKcEEvT_SD_St20forward_iterator_tag
FN:1896,1903,_ZNKSt6vectorIN7testing12TestPropertyESaIS1_EE12_M_check_lenEmPKc
FN:1896,1903,_ZNKSt6vectorIN7testing14TestPartResultESaIS1_EE12_M_check_lenEmPKc
FN:1896,1903,_ZNKSt6vectorIN7testing8internal13edit_distance8EditTypeESaIS3_EE12_M_check_lenEmPKc
FN:1896,1903,_ZNKSt6vectorIN7testing8internal9TraceInfoESaIS2_EE12_M_check_lenEmPKc
FN:1896,1903,_ZNKSt6vectorINSt7__cxx1112basic_stringIcSt11char_traitsIcESaIcEEESaIS5_EE12_M_check_lenEmPKc
FN:1896,1903,_ZNKSt6vectorIPN7testing11EnvironmentESaIS2_EE12_M_check_lenEmPKc
FN:1896,1903,_ZNKSt6vectorIPN7testing17TestEventListenerESaIS2_EE12_M_check_lenEmPKc
FN:1896,1903,_ZNKSt6vectorIPN7testing8TestInfoESaIS2_EE12_M_check_lenEmPKc
FN:1896,1903,_ZNKSt6vectorIPN7testing9TestSuiteESaIS2_EE12_M_check_lenEmPKc
FN:1896,1903,_ZNKSt6vectorIPcSaIS0_EE12_M_check_lenEmPKc
FN:1896,1903,_ZNKSt6vectorISt6threadSaIS0_EE12_M_check_lenEmPKc
FN:1896,1903,_ZNKSt6vectorIiSaIiEE12_M_check_lenEmPKc
FN:1896,1903,_ZNKSt6vectorImSaImEE12_M_check_lenEmPKc
FN:396,401,_ZNSt12_Vector_baseIN7testing8internal13edit_distance8EditTypeESaIS3_EE17_M_create_storageEm
FN:396,401,_ZNSt12_Vector_baseINSt7__cxx1112basic_stringIcSt11char_traitsIcESaIcEEESaIS5_EE17_M_create_storageEm
FN:396,401,_ZNSt12_Vector_baseISt6vectorIN7testing8internal13edit_distance8EditTypeESaIS4_EESaIS6_EE17_M_create_storageEm
FN:396,401,_ZNSt12_Vector_baseISt6vectorIdSaIdEESaIS2_EE17_M_create_storageEm
FN:396,401,_ZNSt12_Vector_baseIdSaIdEE17_M_create_storageEm
FN:556,558,_ZNSt6vectorIN7testing8internal13edit_distance8EditTypeESaIS3_EEC2EmRKS4_
FN:556,558,_ZNSt6vectorIdSaIdEEC2EmRKS0_
FN:569,572,_ZNSt6vectorIS_IN7testing8internal13edit_distance8EditTypeESaIS3_EESaIS5_EEC2EmRKS5_RKS6_
FN:569,572,_ZNSt6vectorIS_IdSaIdEESaIS1_EEC2EmRKS1_RKS2_
FN:601,609,_ZNSt6vectorIN7testing8internal13edit_distance8EditTypeESaIS3_EEC2ERKS5_
FN:601,609,_ZNSt6vectorINSt7__cxx1112basic_stringIcSt11char_traitsIcESaIcEEESaIS5_EEC2ERKS7_
FN:601,609,_ZNSt6vectorIdSaIdEEC2ERKS1_
FN:707,713,_ZNSt6vectorINSt7__cxx1112basic_stringIcSt11char_traitsIcESaIcEEESaIS5_EEC2IN9__gnu_cxx17__normal_iteratorIPKS5_S7_EEvEET_SE_RKS6_
FN:707,713,_ZNSt6vectorINSt7__cxx1112basic_stringIcSt11char_traitsIcESaIcEEESaIS5_EEC2IPKPKcvEET_SD_RKS6_
FN:733,738,_ZNSt6vectorIN7testing12TestPropertyESaIS1_EED2Ev
FN:733,738,_ZNSt6vectorIN7testing14TestPartResultESaIS1_EED2Ev
FN:733,738,_ZNSt6vectorIN7testing8internal9TraceInfoESaIS2_EED2Ev
FN:733,738,_ZNSt6vectorINSt7__cxx1112basic_stringIcSt11char_traitsIcESaIcEEESaIS5_EED2Ev
FN:733,738,_ZNSt6vectorIPN7testing11EnvironmentESaIS2_EED2Ev
FN:733,738,_ZNSt6vectorIPN7testing17TestEventListenerESaIS2_EED2Ev
FN:733,738,_ZNSt6vectorIPN7testing8TestInfoESaIS2_EED2Ev
FN:733,738,_ZNSt6vectorIPN7testing9TestSuiteESaIS2_EED2Ev
FN:733,738,_ZNSt6vectorIPcSaIS0_EED2Ev
FN:733,738,_ZNSt6vectorIS_IN7testing8internal13edit_distance8EditTypeESaIS3_EESaIS5_EED2Ev
FN:733,738,_ZNSt6vectorIS_IdSaIdEESaIS1_EED2Ev
FN:733,738,_ZNSt6vectorISt6threadSaIS0_EED2Ev
FN:733,738,_ZNSt6vectorIiSaIiEED2Ev
FN:733,738,_ZNSt6vectorImSaImEED2Ev
FN:766,773,_ZNSt6vectorINSt7__cxx1112basic_stringIcSt11char_traitsIcESaIcEEESaIS5_EEaSEOS7_
FNDA:0,_ZNKSt6vectorIN7testing12TestPropertyESaIS1_EE14_M_range_checkEm
FNDA:0,_ZNKSt6vectorIN7testing14TestPartResultESaIS1_EE14_M_range_checkEm
FNDA:0,_ZNSt6vectorIN7testing12TestPropertyESaIS1_EE9push_backERKS1_
FNDA:0,_ZNSt6vectorIN7testing14TestPartResultESaIS1_EE9push_backERKS1_
FNDA:0,_ZNSt6vectorIN7testing8internal13edit_distance8EditTypeESaIS3_EE9push_backERKS3_
FNDA:0,_ZNSt6vectorIN7testing8internal9TraceInfoESaIS2_EE9push_backERKS2_
FNDA:0,_ZNSt6vectorINSt7__cxx1112basic_stringIcSt11char_traitsIcESaIcEEESaIS5_EE9push_backERKS5_
FNDA:0,_ZNSt6vectorIPN7testing11EnvironmentESaIS2_EE9push_backERKS2_
FNDA:1,_ZNSt6vectorIPN7testing17TestEventListenerESaIS2_EE9push_backERKS2_
FNDA:9,_ZNSt6vectorIPN7testing8TestInfoESaIS2_EE9push_backERKS2_
FNDA:1,_ZNSt6vectorIPN7testing9TestSuiteESaIS2_EE9push_backERKS2_
FNDA:0,_ZNSt6vectorINSt7__cxx1112basic_stringIcSt11char_traitsIcESaIcEEESaIS5_EE19_M_range_initializeIN9__gnu_cxx17__normal_iteratorIPKS5_S7_EEEEvT_SE_St20forward_iterator_tag
FNDA:0,_ZNSt6vectorINSt7__cxx1112basic_stringIcSt11char_traitsIcESaIcEEESaIS5_EE19_M_range_initializeIPKPKcEEvT_SD_St20forward_iterator_tag
FNDA:0,_ZNKSt6vectorIN7testing12TestPropertyESaIS1_EE12_M_check_lenEmPKc
FNDA:0,_ZNKSt6vectorIN7testing14TestPartResultESaIS1_EE12_M_check_lenEmPKc
FNDA:0,_ZNKSt6vectorIN7testing8internal13edit_distance8EditTypeESaIS3_EE12_M_check_lenEmPKc
FNDA:0,_ZNKSt6vectorIN7testing8internal9TraceInfoESaIS2_EE12_M_check_lenEmPKc
FNDA:9,_ZNKSt6vectorINSt7__cxx1112basic_stringIcSt11char_traitsIcESaIcEEESaIS5_EE12_M_check_lenEmPKc
FNDA:0,_ZNKSt6vectorIPN7testing11EnvironmentESaIS2_EE12_M_check_lenEmPKc
FNDA:1,_ZNKSt6vectorIPN7testing17TestEventListenerESaIS2_EE12_M_check_lenEmPKc
FNDA:5,_ZNKSt6vectorIPN7testing8TestInfoESaIS2_EE12_M_check_lenEmPKc
FNDA:1,_ZNKSt6vectorIPN7testing9TestSuiteESaIS2_EE12_M_check_lenEmPKc
FNDA:0,_ZNKSt6vectorIPcSaIS0_EE12_M_check_lenEmPKc
FNDA:5,_ZNKSt6vectorISt6threadSaIS0_EE12_M_check_lenEmPKc
FNDA:6,_ZNKSt6vectorIiSaIiEE12_M_check_lenEmPKc
FNDA:0,_ZNKSt6vectorImSaImEE12_M_check_lenEmPKc
FNDA:0,_ZNSt12_Vector_baseIN7testing8internal13edit_distance8EditTypeESaIS3_EE17_M_create_storageEm
FNDA:2,_ZNSt12_Vector_baseINSt7__cxx1112basic_stringIcSt11char_traitsIcESaIcEEESaIS5_EE17_M_create_storageEm
FNDA:0,_ZNSt12_Vector_baseISt6vectorIN7testing8internal13edit_distance8EditTypeESaIS4_EESaIS6_EE17_M_create_storageEm
FNDA:0,_ZNSt12_Vector_baseISt6vectorIdSaIdEESaIS2_EE17_M_create_storageEm
FNDA:0,_ZNSt12_Vector_baseIdSaIdEE17_M_create_storageEm
FNDA:0,_ZNSt6vectorIN7testing8internal13edit_distance8EditTypeESaIS3_EEC2EmRKS4_
FNDA:0,_ZNSt6vectorIdSaIdEEC2EmRKS0_
FNDA:0,_ZNSt6vectorIS_IN7testing8internal13edit_distance8EditTypeESaIS3_EESaIS5_EEC2EmRKS5_RKS6_
FNDA:0,_ZNSt6vectorIS_IdSaIdEESaIS1_EEC2EmRKS1_RKS2_
FNDA:0,_ZNSt6vectorIN7testing8internal13edit_distance8EditTypeESaIS3_EEC2ERKS5_
FNDA:2,_ZNSt6vectorINSt7__cxx1112basic_stringIcSt11char_traitsIcESaIcEEESaIS5_EEC2ERKS7_
FNDA:0,_ZNSt6vectorIdSaIdEEC2ERKS1_
FNDA:0,_ZNSt6vectorINSt7__cxx1112basic_stringIcSt11char_traitsIcESaIcEEESaIS5_EEC2IN9__gnu_cxx17__normal_iteratorIPKS5_S7_EEvEET_SE_RKS6_
FNDA:0,_ZNSt6vectorINSt7__cxx1112basic_stringIcSt11char_traitsIcESaIcEEESaIS5_EEC2IPKPKcvEET_SD_RKS6_
FNDA:11,_ZNSt6vectorIN7testing12TestPropertyESaIS1_EED2Ev
FNDA:11,_ZNSt6vectorIN7testing14TestPartResultESaIS1_EED2Ev
FNDA:0,_ZNSt6vectorIN7testing8internal9TraceInfoESaIS2_EED2Ev
FNDA:25,_ZNSt6vectorINSt7__cxx1112basic_stringIcSt11char_traitsIcESaIcEEESaIS5_EED2Ev
FNDA:1,_ZNSt6vectorIPN7testing11EnvironmentESaIS2_EED2Ev
FNDA:1,_ZNSt6vectorIPN7testing17TestEventListenerESaIS2_EED2Ev
FNDA:1,_ZNSt6vectorIPN7testing8TestInfoESaIS2_EED2Ev
FNDA:1,_ZNSt6vectorIPN7testing9TestSuiteESaIS2_EED2Ev
FNDA:0,_ZNSt6vectorIPcSaIS0_EED2Ev
FNDA:0,_ZNSt6vectorIS_IN7testing8internal13edit_distance8EditTypeESaIS3_EESaIS5_EED2Ev
FNDA:0,_ZNSt6vectorIS_IdSaIdEESaIS1_EED2Ev
FNDA:1,_ZNSt6vectorISt6threadSaIS0_EED2Ev
FNDA:2,_ZNSt6vectorIiSaIiEED2Ev
FNDA:0,_ZNSt6vectorImSaImEED2Ev
FNDA:2,_ZNSt6vectorINSt7__cxx1112basic_stringIcSt11char_traitsIcESaIcEEESaIS5_EEaSEOS7_
FNF:55
FNH:21
DA:99,0
DA:100,0
DA:113,8
DA:115,8
DA:116,8
DA:117,8
DA:122,8
DA:126,8
DA:127,8
DA:128,8
DA:129,8
DA:133,1
DA:137,0
DA:142,18
DA:146,0
DA:147,0
DA:301,6
DA:302,48
DA:306,0
DA:307,10
DA:311,2
DA:312,2
DA:315,0
DA:321,0
DA:322,0
DA:333,0
DA:334,0
DA:335,0
DA:367,1
DA:369,2
DA:370,1
DA:371,55
DA:378,5
DA:381,32
DA:386,0
DA:389,31
DA:390,5
DA:396,2
DA:398,2
DA:399,2
DA:400,2
DA:401,2
DA:504,48
DA:509,40
DA:531,18
DA:542,2
DA:543,2
DA:556,0
DA:557,0
DA:558,0
DA:569,0
DA:571,0
DA:572,0
DA:601,2
DA:603,2
DA:605,2
DA:606,2
DA:608,2
DA:609,2
DA:707,0
DA:709,0
DA:711,0
DA:713,0
DA:733,54
DA:735,108
DA:736,55
DA:738,73
DA:766,2
DA:768,2
DA:771,2
DA:772,2
DA:873,6
DA:874,38
DA:883,0
DA:884,129
DA:893,16
DA:894,42
DA:903,0
DA:904,214
DA:913,8
DA:914,10
DA:933,1
DA:934,1
DA:954,0
DA:955,6
DA:964,6
DA:965,6
DA:992,5
DA:993,205
DA:999,14
DA:1078,0
DA:1079,0
DA:1080,4
DA:1088,11
DA:1089,11
DA:1126,0
DA:1129,51
DA:1145,0
DA:1148,26
DA:1155,0
DA:1157,0
DA:1158,0
DA:1162,0
DA:1197,0
DA:1199,0
DA:1200,0
DA:1209,2
DA:1212,2
DA:1233,10
DA:1236,10
DA:1260,0
DA:1261,0
DA:1281,11
DA:1283,11
DA:1286,4
DA:1288,4
DA:1292,7
DA:1293,11
DA:1298,0
DA:1299,19
DA:1322,0
DA:1325,0
DA:1326,0
DA:1393,6
DA:1394,6
DA:1534,0
DA:1535,0
DA:1586,6
DA:1589,6
DA:1592,6
DA:1593,6
DA:1594,6
DA:1605,0
DA:1606,13
DA:1687,0
DA:1690,0
DA:1692,0
DA:1693,0
DA:1694,0
DA:1695,0
DA:1697,0
DA:1698,0
DA:1704,0
DA:1706,0
DA:1707,0
DA:1708,0
DA:1715,0
DA:1717,0
DA:1718,0
DA:1719,0
DA:1833,0
DA:1835,0
DA:1840,0
DA:1841,0
DA:1848,0
DA:1852,0
DA:1853,0
DA:1896,27
DA:1898,27
DA:1899,0
DA:1901,27
DA:1902,54
DA:1907,0
DA:1909,0
DA:1910,0
DA:1933,0
DA:1935,12
DA:1937,0
DA:1938,0
DA:1939,0
DA:1959,2
DA:1961,2
DA:1962,2
DA:1963,2
DA:1964,2
DA:1965,2
LF:176
LH:99
end_of_record
TN:
SF:/usr/include/c++/13/bits/uniform_int_dist.h
FN:257,281,_ZNSt24uniform_int_distributionIiE5_S_ndImSt23mersenne_twister_engineImLm32ELm624ELm397ELm31ELm2567483615ELm11ELm4294967295ELm7ELm2636928640ELm15ELm4022730752ELm18ELm1812433253EEjEET1_RT0_S4_
FN:287,373,_ZNSt24uniform_int_distributionIiEclISt23mersenne_twister_engineImLm32ELm624ELm397ELm31ELm2567483615ELm11ELm4294967295ELm7ELm2636928640ELm15ELm4022730752ELm18ELm1812433253EEEEiRT_RKNS0_10param_typeE
FNDA:10000,_ZNSt24uniform_int_distributionIiE5_S_ndImSt23mersenne_twister_engineImLm32ELm624ELm397ELm31ELm2567483615ELm11ELm4294967295ELm7ELm2636928640ELm15ELm4022730752ELm18ELm1812433253EEjEET1_RT0_S4_
FNDA:10000,_ZNSt24uniform_int_distributionIiEclISt23mersenne_twister_engineImLm32ELm624ELm397ELm31ELm2567483615ELm11ELm4294967295ELm7ELm2636928640ELm15ELm4022730752ELm18ELm1812433253EEEEiRT_RKNS0_10param_typeE
FNF:2
FNH:2
DA:104,0
DA:106,0
DA:108,0
DA:112,20000
DA:113,20000
DA:116,10000
DA:117,10000
DA:142,10
DA:145,10
DA:203,10000
DA:204,10000
DA:257,10000
DA:269,10000
DA:270,10000
DA:271,10000
DA:273,0
DA:274,0
DA:276,0
DA:277,0
DA:280,10000
DA:287,10000
DA:295,10000
DA:296,10000
DA:299,10000
DA:301,10000
DA:302,10000
DA:305,10000
DA:309,10000
DA:327,10000
DA:328,10000
DA:342,0
DA:362,0
DA:363,0
DA:364,0
DA:365,0
DA:367,0
DA:370,0
DA:372,10000
LF:38
LH:24
end_of_record
TN:
SF:/usr/include/c++/13/bits/unique_lock.h
FN:133,144,_ZNSt11unique_lockISt12shared_mutexE4lockEv
FN:133,144,_ZNSt11unique_lockISt5mutexE4lockEv
FN:194,203,_ZNSt11unique_lockISt12shared_mutexE6unlockEv
FN:194,203,_ZNSt11unique_lockISt5mutexE6unlockEv
FNDA:10337,_ZNSt11unique_lockISt12shared_mutexE4lockEv
FNDA:33067,_ZNSt11unique_lockISt5mutexE4lockEv
FNDA:10337,_ZNSt11unique_lockISt12shared_mutexE6unlockEv
FNDA:33067,_ZNSt11unique_lockISt5mutexE6unlockEv
FNF:4
FNH:4
DA:68,0
DA:69,0
DA:71,43404
DA:72,0
DA:103,0
DA:105,11339
DA:106,0
DA:107,0
DA:133,43404
DA:135,43404
DA:136,0
DA:137,43404
DA:138,0
DA:141,43404
DA:142,43404
DA:144,43404
DA:194,43404
DA:196,43404
DA:197,0
DA:198,43404
DA:200,43404
DA:201,43404
DA:203,43404
LF:23
LH:14
end_of_record
TN:
SF:/usr/include/c++/13/bits/unique_ptr.h
FN:206,212,_ZNSt15__uniq_ptr_implIN7testing8internal24InternalRunDeathTestFlagESt14default_deleteIS2_EE5resetEPS2_
FN:206,212,_ZNSt15__uniq_ptr_implINSt7__cxx1112basic_stringIcSt11char_traitsIcESaIcEEESt14default_deleteIS5_EE5resetEPS5_
FN:398,406,_ZNSt10unique_ptrIKNSt7__cxx1112basic_stringIcSt11char_traitsIcESaIcEEESt14default_deleteIS6_EED2Ev
FN:398,406,_ZNSt10unique_ptrIN7testing8internal14GTestFlagSaverESt14default_deleteIS2_EED2Ev
FN:398,406,_ZNSt10unique_ptrIN7testing8internal24InternalRunDeathTestFlagESt14default_deleteIS2_EED2Ev
FN:398,406,_ZNSt10unique_ptrINSt7__cxx1112basic_stringIcSt11char_traitsIcESaIcEEESt14default_deleteIS5_EED2Ev
FNDA:1,_ZNSt15__uniq_ptr_implIN7testing8internal24InternalRunDeathTestFlagESt14default_deleteIS2_EE5resetEPS2_
FNDA:0,_ZNSt15__uniq_ptr_implINSt7__cxx1112basic_stringIcSt11char_traitsIcESaIcEEESt14default_deleteIS5_EE5resetEPS5_
FNDA:19,_ZNSt10unique_ptrIKNSt7__cxx1112basic_stringIcSt11char_traitsIcESaIcEEESt14default_deleteIS6_EED2Ev
FNDA:9,_ZNSt10unique_ptrIN7testing8internal14GTestFlagSaverESt14default_deleteIS2_EED2Ev
FNDA:1,_ZNSt10unique_ptrIN7testing8internal24InternalRunDeathTestFlagESt14default_deleteIS2_EED2Ev
FNDA:22017,_ZNSt10unique_ptrINSt7__cxx1112basic_stringIcSt11char_traitsIcESaIcEEESt14default_deleteIS5_EED2Ev
FNF:6
FNH:5
DA:93,0
DA:99,0
DA:100,0
DA:174,11010
DA:176,10
DA:189,0
DA:191,0
DA:197,95
DA:199,0
DA:201,0
DA:206,1
DA:208,1
DA:209,1
DA:210,1
DA:211,0
DA:212,1
DA:215,0
DA:217,0
DA:218,0
DA:224,0
DA:227,0
DA:241,11020
DA:243,0
DA:304,11010
DA:305,22018
DA:317,10
DA:318,95
DA:398,29
DA:402,22122
DA:403,22122
DA:404,9
DA:406,22057
DA:414,0
DA:451,0
DA:453,0
DA:454,568
DA:460,0
DA:463,0
DA:469,0
DA:470,613
DA:475,0
DA:476,0
DA:486,0
DA:487,0
DA:505,1
DA:509,1
DA:515,0
DA:518,0
DA:813,0
DA:815,0
DA:837,12
DA:838,12
DA:1069,0
DA:1070,0
LF:54
LH:24
end_of_record
TN:
SF:/usr/include/c++/13/bits/unordered_map.h
FNF:0
FNH:0
DA:109,4
DA:148,10
DA:317,1121
DA:318,1121
DA:354,1
DA:355,55016
DA:395,1
DA:396,1
DA:752,0
DA:753,0
DA:769,0
DA:770,0
DA:875,1
DA:876,1
DA:986,0
DA:987,31203
LF:16
LH:11
end_of_record
TN:
SF:/usr/include/c++/13/bits/unordered_set.h
FNF:0
FNH:0
DA:104,0
DA:142,6
DA:277,0
DA:327,4
DA:328,4
DA:345,39
DA:346,39
DA:461,0
DA:462,0
DA:669,39
DA:670,39
LF:11
LH:7
end_of_record
TN:
SF:/usr/include/c++/13/bits/vector.tcc
FN:111,127,_ZNSt6vectorINSt7__cxx1112basic_stringIcSt11char_traitsIcESaIcEEESaIS5_EE12emplace_backIJS5_EEERS5_DpOT_
FN:111,127,_ZNSt6vectorIPcSaIS0_EE12emplace_backIJS0_EEERS0_DpOT_
FN:111,127,_ZNSt6vectorISt6threadSaIS0_EE12emplace_backIJRZN36storage_test_test_thread_access_Test8TestBodyEvEUliiE_RiRKiEEERS0_DpOT_
FN:111,127,_ZNSt6vectorIiSaIiEE12emplace_backIJiEEERiDpOT_
FN:111,127,_ZNSt6vectorImSaImEE12emplace_backIJmEEERmDpOT_
FN:133,176,_ZNSt6vectorIPN7testing9TestSuiteESaIS2_EE6insertEN9__gnu_cxx17__normal_iteratorIPKS2_S4_EERS7_
FN:181,190,_ZNSt6vectorIPN7testing17TestEventListenerESaIS2_EE8_M_eraseEN9__gnu_cxx17__normal_iteratorIPS2_S4_EE
FN:356,375,_ZNSt6vectorINSt7__cxx1112basic_stringIcSt11char_traitsIcESaIcEEESaIS5_EE14_M_insert_rvalEN9__gnu_cxx17__normal_iteratorIPKS5_S7_EEOS5_
FN:413,438,_ZNSt6vectorINSt7__cxx1112basic_stringIcSt11char_traitsIcESaIcEEESaIS5_EE13_M_insert_auxIS5_EEvN9__gnu_cxx17__normal_iteratorIPS5_S7_EEOT_
FN:445,524,_ZNSt6vectorIN7testing12TestPropertyESaIS1_EE17_M_realloc_insertIJRKS1_EEEvN9__gnu_cxx17__normal_iteratorIPS1_S3_EEDpOT_
FN:445,524,_ZNSt6vectorIN7testing14TestPartResultESaIS1_EE17_M_realloc_insertIJRKS1_EEEvN9__gnu_cxx17__normal_iteratorIPS1_S3_EEDpOT_
FN:445,524,_ZNSt6vectorIN7testing8internal13edit_distance8EditTypeESaIS3_EE17_M_realloc_insertIJRKS3_EEEvN9__gnu_cxx17__normal_iteratorIPS3_S5_EEDpOT_
FN:445,524,_ZNSt6vectorIN7testing8internal9TraceInfoESaIS2_EE17_M_realloc_insertIJRKS2_EEEvN9__gnu_cxx17__normal_iteratorIPS2_S4_EEDpOT_
FN:445,524,_ZNSt6vectorINSt7__cxx1112basic_stringIcSt11char_traitsIcESaIcEEESaIS5_EE17_M_realloc_insertIJRKS5_EEEvN9__gnu_cxx17__normal_iteratorIPS5_S7_EEDpOT_
FN:445,524,_ZNSt6vectorINSt7__cxx1112basic_stringIcSt11char_traitsIcESaIcEEESaIS5_EE17_M_realloc_insertIJS5_EEEvN9__gnu_cxx17__normal_iteratorIPS5_S7_EEDpOT_
FN:445,524,_ZNSt6vectorIPN7testing11EnvironmentESaIS2_EE17_M_realloc_insertIJRKS2_EEEvN9__gnu_cxx17__normal_iteratorIPS2_S4_EEDpOT_
FN:445,524,_ZNSt6vectorIPN7testing17TestEventListenerESaIS2_EE17_M_realloc_insertIJRKS2_EEEvN9__gnu_cxx17__normal_iteratorIPS2_S4_EEDpOT_
FN:445,524,_ZNSt6vectorIPN7testing8TestInfoESaIS2_EE17_M_realloc_insertIJRKS2_EEEvN9__gnu_cxx17__normal_iteratorIPS2_S4_EEDpOT_
FN:445,524,_ZNSt6vectorIPN7testing9TestSuiteESaIS2_EE17_M_realloc_insertIJRKS2_EEEvN9__gnu_cxx17__normal_iteratorIPS2_S4_EEDpOT_
FN:445,524,_ZNSt6vectorIPcSaIS0_EE17_M_realloc_insertIJS0_EEEvN9__gnu_cxx17__normal_iteratorIPS0_S2_EEDpOT_
FN:445,524,_ZNSt6vectorISt6threadSaIS0_EE17_M_realloc_insertIJRZN36storage_test_test_thread_access_Test8TestBodyEvEUliiE_RiRKiEEEvN9__gnu_cxx17__normal_iteratorIPS0_S2_EEDpOT_
FN:445,524,_ZNSt6vectorIiSaIiEE17_M_realloc_insertIJiEEEvN9__gnu_cxx17__normal_iteratorIPiS1_EEDpOT_
FN:445,524,_ZNSt6vectorImSaImEE17_M_realloc_insertIJmEEEvN9__gnu_cxx17__normal_iteratorIPmS1_EEDpOT_
FN:67,100,_ZNSt6vectorINSt7__cxx1112basic_stringIcSt11char_traitsIcESaIcEEESaIS5_EE7reserveEm
FN:67,100,_ZNSt6vectorIPcSaIS0_EE7reserveEm
FNDA:9,_ZNSt6vectorINSt7__cxx1112basic_stringIcSt11char_traitsIcESaIcEEESaIS5_EE12emplace_backIJS5_EEERS5_DpOT_
FNDA:0,_ZNSt6vectorIPcSaIS0_EE12emplace_backIJS0_EEERS0_DpOT_
FNDA:10,_ZNSt6vectorISt6threadSaIS0_EE12emplace_backIJRZN36storage_test_test_thread_access_Test8TestBodyEvEUliiE_RiRKiEEERS0_DpOT_
FNDA:10,_ZNSt6vectorIiSaIiEE12emplace_backIJiEEERiDpOT_
FNDA:0,_ZNSt6vectorImSaImEE12emplace_backIJmEEERmDpOT_
FNDA:0,_ZNSt6vectorIPN7testing9TestSuiteESaIS2_EE6insertEN9__gnu_cxx17__normal_iteratorIPKS2_S4_EERS7_
FNDA:0,_ZNSt6vectorIPN7testing17TestEventListenerESaIS2_EE8_M_eraseEN9__gnu_cxx17__normal_iteratorIPS2_S4_EE
FNDA:6,_ZNSt6vectorINSt7__cxx1112basic_stringIcSt11char_traitsIcESaIcEEESaIS5_EE14_M_insert_rvalEN9__gnu_cxx17__normal_iteratorIPKS5_S7_EEOS5_
FNDA:0,_ZNSt6vectorINSt7__cxx1112basic_stringIcSt11char_traitsIcESaIcEEESaIS5_EE13_M_insert_auxIS5_EEvN9__gnu_cxx17__normal_iteratorIPS5_S7_EEOT_
FNDA:0,_ZNSt6vectorIN7testing12TestPropertyESaIS1_EE17_M_realloc_insertIJRKS1_EEEvN9__gnu_cxx17__normal_iteratorIPS1_S3_EEDpOT_
FNDA:0,_ZNSt6vectorIN7testing14TestPartResultESaIS1_EE17_M_realloc_insertIJRKS1_EEEvN9__gnu_cxx17__normal_iteratorIPS1_S3_EEDpOT_
FNDA:0,_ZNSt6vectorIN7testing8internal13edit_distance8EditTypeESaIS3_EE17_M_realloc_insertIJRKS3_EEEvN9__gnu_cxx17__normal_iteratorIPS3_S5_EEDpOT_
FNDA:0,_ZNSt6vectorIN7testing8internal9TraceInfoESaIS2_EE17_M_realloc_insertIJRKS2_EEEvN9__gnu_cxx17__normal_iteratorIPS2_S4_EEDpOT_
FNDA:0,_ZNSt6vectorINSt7__cxx1112basic_stringIcSt11char_traitsIcESaIcEEESaIS5_EE17_M_realloc_insertIJRKS5_EEEvN9__gnu_cxx17__normal_iteratorIPS5_S7_EEDpOT_
FNDA:9,_ZNSt6vectorINSt7__cxx1112basic_stringIcSt11char_traitsIcESaIcEEESaIS5_EE17_M_realloc_insertIJS5_EEEvN9__gnu_cxx17__normal_iteratorIPS5_S7_EEDpOT_
FNDA:0,_ZNSt6vectorIPN7testing11EnvironmentESaIS2_EE17_M_realloc_insertIJRKS2_EEEvN9__gnu_cxx17__normal_iteratorIPS2_S4_EEDpOT_
FNDA:1,_ZNSt6vectorIPN7testing17TestEventListenerESaIS2_EE17_M_realloc_insertIJRKS2_EEEvN9__gnu_cxx17__normal_iteratorIPS2_S4_EEDpOT_
FNDA:5,_ZNSt6vectorIPN7testing8TestInfoESaIS2_EE17_M_realloc_insertIJRKS2_EEEvN9__gnu_cxx17__normal_iteratorIPS2_S4_EEDpOT_
FNDA:1,_ZNSt6vectorIPN7testing9TestSuiteESaIS2_EE17_M_realloc_insertIJRKS2_EEEvN9__gnu_cxx17__normal_iteratorIPS2_S4_EEDpOT_
FNDA:0,_ZNSt6vectorIPcSaIS0_EE17_M_realloc_insertIJS0_EEEvN9__gnu_cxx17__normal_iteratorIPS0_S2_EEDpOT_
FNDA:5,_ZNSt6vectorISt6threadSaIS0_EE17_M_realloc_insertIJRZN36storage_test_test_thread_access_Test8TestBodyEvEUliiE_RiRKiEEEvN9__gnu_cxx17__normal_iteratorIPS0_S2_EEDpOT_
FNDA:6,_ZNSt6vectorIiSaIiEE17_M_realloc_insertIJiEEEvN9__gnu_cxx17__normal_iteratorIPiS1_EEDpOT_
FNDA:0,_ZNSt6vectorImSaImEE17_M_realloc_insertIJmEEEvN9__gnu_cxx17__normal_iteratorIPmS1_EEDpOT_
FNDA:4,_ZNSt6vectorINSt7__cxx1112basic_stringIcSt11char_traitsIcESaIcEEESaIS5_EE7reserveEm
FNDA:0,_ZNSt6vectorIPcSaIS0_EE7reserveEm
FNF:25
FNH:11
DA:67,4
DA:70,4
DA:71,0
DA:72,4
DA:74,4
DA:79,4
DA:80,4
DA:81,4
DA:93,8
DA:94,4
DA:95,4
DA:96,4
DA:97,4
DA:98,4
DA:100,4
DA:111,29
DA:114,29
DA:117,9
DA:119,9
DA:123,20
DA:125,29
DA:133,0
DA:140,0
DA:141,0
DA:143,0
DA:144,0
DA:145,0
DA:147,0
DA:150,0
DA:152,0
DA:158,0
DA:161,0
DA:162,0
DA:166,0
DA:170,0
DA:175,0
DA:181,0
DA:184,0
DA:185,0
DA:186,0
DA:187,0
DA:189,0
DA:356,6
DA:359,6
DA:360,6
DA:361,6
DA:364,6
DA:366,6
DA:370,0
DA:372,0
DA:374,6
DA:413,0
DA:423,0
DA:424,0
DA:425,0
DA:430,0
DA:436,0
DA:438,0
DA:445,27
DA:455,27
DA:456,27
DA:457,27
DA:458,27
DA:459,27
DA:460,27
DA:468,32
DA:469,27
DA:475,27
DA:480,27
DA:481,27
DA:483,27
DA:485,32
DA:486,27
DA:504,0
DA:506,0
DA:507,0
DA:510,0
DA:511,0
DA:512,0
DA:519,54
DA:520,27
DA:521,27
DA:522,27
DA:523,27
DA:524,27
LF:85
LH:48
end_of_record
TN:
SF:/usr/include/c++/13/cmath
FNF:0
FNH:0
DA:1152,0
DA:1153,0
DA:1225,0
DA:1226,0
LF:4
LH:0
end_of_record
TN:
SF:/usr/include/c++/13/compare
FNF:0
FNH:0
DA:292,0
DA:293,0
LF:2
LH:0
end_of_record
TN:
SF:/usr/include/c++/13/ext/aligned_buffer.h
FN:116,117,_ZN9__gnu_cxx16__aligned_bufferISt4pairIKNSt7__cxx1112basic_stringIcSt11char_traitsIcESaIcEEEPN7testing9TestSuiteEEE6_M_ptrEv
FN:116,117,_ZN9__gnu_cxx16__aligned_bufferISt4pairIKNSt7__cxx1112basic_stringIcSt11char_traitsIcESaIcEEES7_EE6_M_ptrEv
FN:116,117,_ZN9__gnu_cxx16__aligned_bufferISt4pairIKNSt7__cxx1112basic_stringIcSt11char_traitsIcESaIcEEESt14_List_iteratorIS7_EEE6_M_ptrEv
FN:116,117,_ZN9__gnu_cxx16__aligned_bufferISt4pairIKiNSt7__cxx1112basic_stringIcSt11char_traitsIcESaIcEEEEE6_M_ptrEv
FN:116,117,_ZN9__gnu_cxx16__aligned_bufferISt4pairIKiSt14_List_iteratorIiEEE6_M_ptrEv
FN:116,117,_ZN9__gnu_cxx16__aligned_bufferISt4pairIKiiEE6_M_ptrEv
FN:120,121,_ZNK9__gnu_cxx16__aligned_bufferINSt7__cxx1112basic_stringIcSt11char_traitsIcESaIcEEEE6_M_ptrEv
FN:120,121,_ZNK9__gnu_cxx16__aligned_bufferISt4pairIKNSt7__cxx1112basic_stringIcSt11char_traitsIcESaIcEEEPN7testing9TestSuiteEEE6_M_ptrEv
FN:120,121,_ZNK9__gnu_cxx16__aligned_bufferISt4pairIKNSt7__cxx1112basic_stringIcSt11char_traitsIcESaIcEEES7_EE6_M_ptrEv
FN:120,121,_ZNK9__gnu_cxx16__aligned_bufferISt4pairIKNSt7__cxx1112basic_stringIcSt11char_traitsIcESaIcEEESt14_List_iteratorIS7_EEE6_M_ptrEv
FN:120,121,_ZNK9__gnu_cxx16__aligned_bufferISt4pairIKiNSt7__cxx1112basic_stringIcSt11char_traitsIcESaIcEEEEE6_M_ptrEv
FN:120,121,_ZNK9__gnu_cxx16__aligned_bufferISt4pairIKiSt14_List_iteratorIiEEE6_M_ptrEv
FN:120,121,_ZNK9__gnu_cxx16__aligned_bufferISt4pairIKiiEE6_M_ptrEv
FNDA:0,_ZN9__gnu_cxx16__aligned_bufferISt4pairIKNSt7__cxx1112basic_stringIcSt11char_traitsIcESaIcEEEPN7testing9TestSuiteEEE6_M_ptrEv
FNDA:8,_ZN9__gnu_cxx16__aligned_bufferISt4pairIKNSt7__cxx1112basic_stringIcSt11char_traitsIcESaIcEEES7_EE6_M_ptrEv
FNDA:9,_ZN9__gnu_cxx16__aligned_bufferISt4pairIKNSt7__cxx1112basic_stringIcSt11char_traitsIcESaIcEEESt14_List_iteratorIS7_EEE6_M_ptrEv
FNDA:7858,_ZN9__gnu_cxx16__aligned_bufferISt4pairIKiNSt7__cxx1112basic_stringIcSt11char_traitsIcESaIcEEEEE6_M_ptrEv
FNDA:21119,_ZN9__gnu_cxx16__aligned_bufferISt4pairIKiSt14_List_iteratorIiEEE6_M_ptrEv
FNDA:65,_ZN9__gnu_cxx16__aligned_bufferISt4pairIKiiEE6_M_ptrEv
FNDA:0,_ZNK9__gnu_cxx16__aligned_bufferINSt7__cxx1112basic_stringIcSt11char_traitsIcESaIcEEEE6_M_ptrEv
FNDA:0,_ZNK9__gnu_cxx16__aligned_bufferISt4pairIKNSt7__cxx1112basic_stringIcSt11char_traitsIcESaIcEEEPN7testing9TestSuiteEEE6_M_ptrEv
FNDA:14,_ZNK9__gnu_cxx16__aligned_bufferISt4pairIKNSt7__cxx1112basic_stringIcSt11char_traitsIcESaIcEEES7_EE6_M_ptrEv
FNDA:13,_ZNK9__gnu_cxx16__aligned_bufferISt4pairIKNSt7__cxx1112basic_stringIcSt11char_traitsIcESaIcEEESt14_List_iteratorIS7_EEE6_M_ptrEv
FNDA:66326,_ZNK9__gnu_cxx16__aligned_bufferISt4pairIKiNSt7__cxx1112basic_stringIcSt11char_traitsIcESaIcEEEEE6_M_ptrEv
FNDA:74780,_ZNK9__gnu_cxx16__aligned_bufferISt4pairIKiSt14_List_iteratorIiEEE6_M_ptrEv
FNDA:112,_ZNK9__gnu_cxx16__aligned_bufferISt4pairIKiiEE6_M_ptrEv
FNF:13
FNH:10
DA:64,0
DA:65,0
DA:68,0
DA:69,0
DA:72,0
DA:73,21427
DA:76,0
DA:77,0
DA:104,43187
DA:106,0
DA:110,141245
DA:112,141245
DA:116,43187
DA:117,66776
DA:120,141245
DA:121,141245
LF:16
LH:8
end_of_record
TN:
SF:/usr/include/c++/13/ext/alloc_traits.h
FNF:0
FNH:0
DA:97,11038
DA:98,11038
LF:2
LH:2
end_of_record
TN:
SF:/usr/include/c++/13/ext/concurrence.h
FN:68,69,_ZNK9__gnu_cxx24__concurrence_lock_error4whatEv
FN:76,77,_ZNK9__gnu_cxx26__concurrence_unlock_error4whatEv
FN:84,85,_ZNK9__gnu_cxx29__concurrence_broadcast_error4whatEv
FN:92,93,_ZNK9__gnu_cxx24__concurrence_wait_error4whatEv
FNDA:0,_ZNK9__gnu_cxx24__concurrence_lock_error4whatEv
FNDA:0,_ZNK9__gnu_cxx26__concurrence_unlock_error4whatEv
FNDA:0,_ZNK9__gnu_cxx29__concurrence_broadcast_error4whatEv
FNDA:0,_ZNK9__gnu_cxx24__concurrence_wait_error4whatEv
FNF:4
FNH:0
DA:68,0
DA:69,0
DA:76,0
DA:77,0
DA:84,0
DA:85,0
DA:92,0
DA:93,0
LF:8
LH:0
end_of_record
TN:
SF:/usr/include/c++/13/initializer_list
FNF:0
FNH:0
DA:69,0
DA:73,0
DA:77,0
LF:3
LH:0
end_of_record
TN:
SF:/usr/include/c++/13/iomanip
FNF:0
FNH:0
DA:180,0
DA:182,0
DA:197,63
DA:198,63
DA:210,0
DA:212,63
DA:240,0
DA:242,0
LF:8
LH:3
end_of_record
TN:
SF:/usr/include/c++/13/istream
FNF:0
FNH:0
DA:192,0
DA:193,0
LF:2
LH:0
end_of_record
TN:
SF:/usr/include/c++/13/optional
FN:104,105,_ZNKSt19bad_optional_access4whatEv
FNDA:0,_ZNKSt19bad_optional_access4whatEv
FNF:1
FNH:0
DA:104,0
DA:105,0
LF:2
LH:0
end_of_record
TN:
SF:/usr/include/c++/13/ostream
FNF:0
FNH:0
DA:110,0
DA:115,0
DA:129,0
DA:134,0
DA:168,11
DA:169,11
DA:172,0
DA:173,0
DA:194,0
DA:198,0
DA:222,0
DA:223,0
DA:226,0
DA:230,0
DA:292,0
DA:293,0
LF:16
LH:2
end_of_record
TN:
SF:/usr/include/c++/13/shared_mutex
FN:194,201,_ZNSt22__shared_mutex_pthread4lockEv
FNDA:22329,_ZNSt22__shared_mutex_pthread4lockEv
FNF:1
FNH:1
DA:83,22329
DA:85,0
DA:163,9
DA:194,22329
DA:196,22329
DA:197,22329
DA:198,0
DA:200,22329
DA:201,22329
DA:214,0
DA:216,0
DA:218,0
DA:415,9
DA:423,22329
DA:425,0
LF:15
LH:9
end_of_record
TN:
SF:/usr/include/c++/13/sstream
FNF:0
FNH:0
DA:930,0
DA:931,0
DA:1152,0
DA:1153,63
LF:4
LH:1
end_of_record
TN:
SF:/usr/include/c++/13/string_view
FN:343,350,_ZNKSt17basic_string_viewIcSt11char_traitsIcEE7compareES2_
FNDA:0,_ZNKSt17basic_string_viewIcSt11char_traitsIcEE7compareES2_
FNF:1
FNH:0
DA:146,0
DA:229,0
DA:230,0
DA:289,0
DA:343,0
DA:345,0
DA:346,0
DA:347,0
DA:348,0
DA:349,0
DA:573,0
DA:576,0
DA:577,0
DA:579,0
DA:581,0
DA:616,0
DA:619,0
LF:17
LH:0
end_of_record
TN:
SF:/usr/include/c++/13/tuple
FN:2252,2258,_ZNSt4pairIKNSt7__cxx1112basic_stringIcSt11char_traitsIcESaIcEEES5_EC2IJRS6_EJEEESt21piecewise_construct_tSt5tupleIJDpT_EESB_IJDpT0_EE
FNDA:8,_ZNSt4pairIKNSt7__cxx1112basic_stringIcSt11char_traitsIcESaIcEEES5_EC2IJRS6_EJEEESt21piecewise_construct_tSt5tupleIJDpT_EESB_IJDpT0_EE
FNF:1
FNH:1
DA:81,11020
DA:125,0
DA:190,11020
DA:191,11010
DA:193,14138
DA:194,14138
DA:200,10
DA:201,10
DA:234,0
DA:269,0
DA:272,0
DA:280,11020
DA:281,11020
DA:291,10
DA:293,10
DA:497,0
DA:503,11020
DA:504,11020
DA:507,14138
DA:508,14138
DA:513,0
DA:514,0
DA:527,14128
DA:529,14128
DA:874,14128
DA:876,14128
DA:889,10
DA:891,10
DA:903,8
DA:1317,11020
DA:1319,22112
DA:1345,0
DA:1347,0
DA:1787,14138
DA:1788,0
DA:1803,14128
DA:1804,22208
DA:1810,625
DA:1815,10
DA:1818,10
DA:2001,0
DA:2005,0
DA:2252,14128
DA:2257,14074
DA:2258,8
DA:2264,14128
DA:2267,12
DA:2268,14128
LF:48
LH:36
end_of_record
TN:
SF:/usr/include/c++/13/typeinfo
FNF:0
FNH:0
DA:103,0
DA:104,0
LF:2
LH:0
end_of_record
TN:
SF:/usr/include/c++/13/variant
FN:1334,1335,_ZNKSt18bad_variant_access4whatEv
FNDA:0,_ZNKSt18bad_variant_access4whatEv
FNF:1
FNH:0
DA:1334,0
DA:1335,0
LF:2
LH:0
end_of_record
TN:
SF:/usr/include/string.h
FNF:0
FNH:0
DA:239,0
DA:241,1
DA:266,0
DA:268,0
DA:343,0
DA:345,0
LF:6
LH:1
end_of_record
TN:
SF:/usr/include/x86_64-linux-gnu/bits/stdio2.h
FNF:0
FNH:0
DA:51,0
DA:54,0
DA:77,0
DA:79,0
DA:84,0
DA:86,37
DA:96,0
DA:99,25
DA:207,0
DA:210,0
DA:211,0
DA:212,0
DA:213,0
DA:214,0
DA:215,0
LF:15
LH:2
end_of_record
TN:
SF:/usr/include/x86_64-linux-gnu/bits/string_fortified.h
FNF:0
FNH:0
DA:26,0
DA:29,0
DA:57,0
DA:59,0
LF:4
LH:0
end_of_record
TN:
SF:/usr/include/x86_64-linux-gnu/bits/unistd.h
FNF:0
FNH:0
DA:26,0
DA:28,0
DA:86,1
DA:88,1
LF:4
LH:2
end_of_record
TN:
SF:/usr/include/x86_64-linux-gnu/bits/wchar2.h
FNF:0
FNH:0
DA:24,0
DA:27,0
LF:2
LH:0
end_of_record
TN:
SF:/usr/include/x86_64-linux-gnu/c++/13/bits/c++config.h
FNF:0
FNH:0
DA:319,0
DA:321,0
DA:322,0
LF:3
LH:0
end_of_record
TN:
SF:/usr/include/x86_64-linux-gnu/c++/13/bits/gthr-default.h
FNF:0
FNH:0
DA:746,43402
DA:748,43402
DA:749,43402
DA:776,0
DA:778,0
DA:779,0
LF:6
LH:3
end_of_record
